                            * = $0000
0000   EA                   NOP                ;(2)
0001   4C EC FF             JMP $FFEC          ;(3)
0004   EA                   NOP                ;(2)
0005   38                   SEC                ;(2)
0006   B0 FE      L0006     BCS L0006          ;(2/3)
0008   EA                   NOP                ;(2)
0009   4C 6E F5             JMP $F56E          ;(3)
000C   EA                   NOP                ;(2)
000D   18                   CLC                ;(2)
000E   A9 00                LDA #$00           ;(2)
0010   60                   RTS                ;(6)
0011   EA                   NOP                ;(2)
0012   A9 01                LDA #$01           ;(2)
0014   85 03                STA $03            ;(3)
0016   A2 FF                LDX #$FF           ;(2)
0018   9A                   TXS                ;(2)
0019   A9 FF                LDA #$FF           ;(2)
001B   48                   PHA                ;(3)
001C   28                   PLP                ;(4)
001D   90 FE      L001D     BCC L001D          ;(2/3)
001F   D0 FE      L001F     BNE L001F          ;(2/3)
0021   50 FE      L0021     BVC L0021          ;(2/3)
0023   10 FE      L0023     BPL L0023          ;(2/3)
0025   30 03                BMI L002A          ;(2/3)
0027   4C 27 E0             JMP $E027          ;(3)
002A   F0 03      L002A     BEQ L002F          ;(2/3)
002C   4C 2C E0             JMP $E02C          ;(3)
002F   70 03      L002F     BVS L0034          ;(2/3)
0031   4C 31 E0             JMP $E031          ;(3)
0034   B0 03      L0034     BCS L0039          ;(2/3)
0036   4C 36 E0             JMP $E036          ;(3)
0039   A9 02      L0039     LDA #$02           ;(2)
003B   85 03                STA $03            ;(3)
003D   A9 00                LDA #$00           ;(2)
003F   48                   PHA                ;(3)
0040   28                   PLP                ;(4)
0041   B0 FE      L0041     BCS L0041          ;(2/3)
0043   F0 FE      L0043     BEQ L0043          ;(2/3)
0045   70 FE      L0045     BVS L0045          ;(2/3)
0047   30 FE      L0047     BMI L0047          ;(2/3)
0049   90 03                BCC L004E          ;(2/3)
004B   4C 4B E0             JMP $E04B          ;(3)
004E   D0 03      L004E     BNE L0053          ;(2/3)
0050   4C 50 E0             JMP $E050          ;(3)
0053   50 03      L0053     BVC L0058          ;(2/3)
0055   4C 55 E0             JMP $E055          ;(3)
0058   10 03      L0058     BPL L005D          ;(2/3)
005A   4C 5A E0             JMP $E05A          ;(3)
005D   A9 03      L005D     LDA #$03           ;(2)
005F   85 03                STA $03            ;(3)
0061   F0 FE      L0061     BEQ L0061          ;(2/3)
0063   D0 03                BNE L0068          ;(2/3)
0065   4C 65 E0             JMP $E065          ;(3)
0068   38         L0068     SEC                ;(2)
0069   90 FE      L0069     BCC L0069          ;(2/3)
006B   B0 03                BCS L0070          ;(2/3)
006D   4C 6D E0             JMP $E06D          ;(3)
0070   18         L0070     CLC                ;(2)
0071   B0 FE      L0071     BCS L0071          ;(2/3)
0073   90 03                BCC L0078          ;(2/3)
0075   4C 75 E0             JMP $E075          ;(3)
0078   B8         L0078     CLV                ;(2)
0079   70 FE      L0079     BVS L0079          ;(2/3)
007B   50 03                BVC L0080          ;(2/3)
007D   4C 7D E0             JMP $E07D          ;(3)
0080   A9 04      L0080     LDA #$04           ;(2)
0082   85 03                STA $03            ;(3)
0084   A9 00                LDA #$00           ;(2)
0086   D0 FE      L0086     BNE L0086          ;(2/3)
0088   30 FE      L0088     BMI L0088          ;(2/3)
008A   85 10                STA $10            ;(3)
008C   8D 00 10             STA L1000          ;(4)
008F   A9 80                LDA #$80           ;(2)
0091   F0 FE      L0091     BEQ L0091          ;(2/3)
0093   10 FE      L0093     BPL L0093          ;(2/3)
0095   85 11                STA $11            ;(3)
0097   8D 01 10             STA $1001          ;(4)
009A   A2 00                LDX #$00           ;(2)
009C   D0 FE      L009C     BNE L009C          ;(2/3)
009E   30 FE      L009E     BMI L009E          ;(2/3)
00A0   86 12                STX $12            ;(3)
00A2   8E 02 10             STX $1002          ;(4)
00A5   A2 80                LDX #$80           ;(2)
00A7   F0 FE      L00A7     BEQ L00A7          ;(2/3)
00A9   10 FE      L00A9     BPL L00A9          ;(2/3)
00AB   86 13                STX $13            ;(3)
00AD   8E 03 10             STX $1003          ;(4)
00B0   A0 00                LDY #$00           ;(2)
00B2   D0 FE      L00B2     BNE L00B2          ;(2/3)
00B4   30 FE      L00B4     BMI L00B4          ;(2/3)
00B6   84 14                STY $14            ;(3)
00B8   8C 04 10             STY $1004          ;(4)
00BB   A0 80                LDY #$80           ;(2)
00BD   F0 FE      L00BD     BEQ L00BD          ;(2/3)
00BF   10 FE      L00BF     BPL L00BF          ;(2/3)
00C1   84 15                STY $15            ;(3)
00C3   8C 05 10             STY $1005          ;(4)
00C6   A9 05                LDA #$05           ;(2)
00C8   85 03                STA $03            ;(3)
00CA   A5 10                LDA $10            ;(3)
00CC   D0 FE      L00CC     BNE L00CC          ;(2/3)
00CE   30 FE      L00CE     BMI L00CE          ;(2/3)
00D0   A5 11                LDA $11            ;(3)
00D2   F0 FE      L00D2     BEQ L00D2          ;(2/3)
00D4   10 FE      L00D4     BPL L00D4          ;(2/3)
00D6   A6 10                LDX $10            ;(3)
00D8   D0 FE      L00D8     BNE L00D8          ;(2/3)
00DA   30 FE      L00DA     BMI L00DA          ;(2/3)
00DC   A6 11                LDX $11            ;(3)
00DE   F0 FE      L00DE     BEQ L00DE          ;(2/3)
00E0   10 FE      L00E0     BPL L00E0          ;(2/3)
00E2   A4 10                LDY $10            ;(3)
00E4   D0 FE      L00E4     BNE L00E4          ;(2/3)
00E6   30 FE      L00E6     BMI L00E6          ;(2/3)
00E8   A4 11                LDY $11            ;(3)
00EA   F0 FE      L00EA     BEQ L00EA          ;(2/3)
00EC   10 FE      L00EC     BPL L00EC          ;(2/3)
00EE   18                   CLC                ;(2)
00EF   90 14                BCC L0105          ;(2/4)
00F1   4C F1 E0             JMP $E0F1          ;(3)
00F4   38         L00F4     SEC                ;(2)
00F5   B0 10                BCS L0107          ;(2/4)
00F7   EA                   NOP                ;(2)
00F8   EA                   NOP                ;(2)
00F9   EA                   NOP                ;(2)
00FA   EA                   NOP                ;(2)
00FB   EA                   NOP                ;(2)
00FC   EA                   NOP                ;(2)
00FD   EA                   NOP                ;(2)
00FE   EA                   NOP                ;(2)
00FF   EA                   NOP                ;(2)
0100   EA                   NOP                ;(2)
0101   EA                   NOP                ;(2)
0102   EA                   NOP                ;(2)
0103   EA                   NOP                ;(2)
0104   EA                   NOP                ;(2)
0105   90 ED      L0105     BCC L00F4          ;(2/4)
0107   A9 06      L0107     LDA #$06           ;(2)
0109   85 03                STA $03            ;(3)
010B   AD 00 10             LDA L1000          ;(4)
010E   D0 FE      L010E     BNE L010E          ;(2/3)
0110   30 FE      L0110     BMI L0110          ;(2/3)
0112   AD 01 10             LDA $1001          ;(4)
0115   F0 FE      L0115     BEQ L0115          ;(2/3)
0117   10 FE      L0117     BPL L0117          ;(2/3)
0119   AE 00 10             LDX L1000          ;(4)
011C   D0 FE      L011C     BNE L011C          ;(2/3)
011E   30 FE      L011E     BMI L011E          ;(2/3)
0120   AE 01 10             LDX $1001          ;(4)
0123   F0 FE      L0123     BEQ L0123          ;(2/3)
0125   10 FE      L0125     BPL L0125          ;(2/3)
0127   AC 00 10             LDY L1000          ;(4)
012A   D0 FE      L012A     BNE L012A          ;(2/3)
012C   30 FE      L012C     BMI L012C          ;(2/3)
012E   AC 01 10             LDY $1001          ;(4)
0131   F0 FE      L0131     BEQ L0131          ;(2/3)
0133   10 FE      L0133     BPL L0133          ;(2/3)
0135   A2 00                LDX #$00           ;(2)
0137   A0 00                LDY #$00           ;(2)
0139   A9 07                LDA #$07           ;(2)
013B   85 03                STA $03            ;(3)
013D   85 10                STA $10            ;(3)
013F   8D 00 10             STA L1000          ;(4)
0142   C9 07                CMP #$07           ;(2)
0144   D0 FE      L0144     BNE L0144          ;(2/3)
0146   90 FE      L0146     BCC L0146          ;(2/3)
0148   30 FE      L0148     BMI L0148          ;(2/3)
014A   C5 10                CMP $10            ;(3)
014C   D0 FE      L014C     BNE L014C          ;(2/3)
014E   90 FE      L014E     BCC L014E          ;(2/3)
0150   30 FE      L0150     BMI L0150          ;(2/3)
0152   CD 00 10             CMP L1000          ;(4)
0155   D0 FE      L0155     BNE L0155          ;(2/3)
0157   90 FE      L0157     BCC L0157          ;(2/3)
0159   30 FE      L0159     BMI L0159          ;(2/3)
015B   A2 07                LDX #$07           ;(2)
015D   E0 07                CPX #$07           ;(2)
015F   D0 FE      L015F     BNE L015F          ;(2/3)
0161   90 FE      L0161     BCC L0161          ;(2/3)
0163   30 FE      L0163     BMI L0163          ;(2/3)
0165   E4 10                CPX $10            ;(3)
0167   D0 FE      L0167     BNE L0167          ;(2/3)
0169   90 FE      L0169     BCC L0169          ;(2/3)
016B   30 FE      L016B     BMI L016B          ;(2/3)
016D   EC 00 10             CPX L1000          ;(4)
0170   D0 FE      L0170     BNE L0170          ;(2/3)
0172   90 FE      L0172     BCC L0172          ;(2/3)
0174   30 FE      L0174     BMI L0174          ;(2/3)
0176   A0 07                LDY #$07           ;(2)
0178   C0 07                CPY #$07           ;(2)
017A   D0 FE      L017A     BNE L017A          ;(2/3)
017C   90 FE      L017C     BCC L017C          ;(2/3)
017E   30 FE      L017E     BMI L017E          ;(2/3)
0180   C4 10                CPY $10            ;(3)
0182   D0 FE      L0182     BNE L0182          ;(2/3)
0184   90 FE      L0184     BCC L0184          ;(2/3)
0186   30 FE      L0186     BMI L0186          ;(2/3)
0188   CC 00 10             CPY L1000          ;(4)
018B   D0 FE      L018B     BNE L018B          ;(2/3)
018D   90 FE      L018D     BCC L018D          ;(2/3)
018F   30 FE      L018F     BMI L018F          ;(2/3)
0191   A9 08                LDA #$08           ;(2)
0193   85 03                STA $03            ;(3)
0195   C9 07                CMP #$07           ;(2)
0197   F0 FE      L0197     BEQ L0197          ;(2/3)
0199   90 FE      L0199     BCC L0199          ;(2/3)
019B   30 FE      L019B     BMI L019B          ;(2/3)
019D   C5 10                CMP $10            ;(3)
019F   F0 FE      L019F     BEQ L019F          ;(2/3)
01A1   90 FE      L01A1     BCC L01A1          ;(2/3)
01A3   30 FE      L01A3     BMI L01A3          ;(2/3)
01A5   CD 00 10             CMP L1000          ;(4)
01A8   F0 FE      L01A8     BEQ L01A8          ;(2/3)
01AA   90 FE      L01AA     BCC L01AA          ;(2/3)
01AC   30 FE      L01AC     BMI L01AC          ;(2/3)
01AE   A2 08                LDX #$08           ;(2)
01B0   E0 07                CPX #$07           ;(2)
01B2   F0 FE      L01B2     BEQ L01B2          ;(2/3)
01B4   90 FE      L01B4     BCC L01B4          ;(2/3)
01B6   30 FE      L01B6     BMI L01B6          ;(2/3)
01B8   E4 10                CPX $10            ;(3)
01BA   F0 FE      L01BA     BEQ L01BA          ;(2/3)
01BC   90 FE      L01BC     BCC L01BC          ;(2/3)
01BE   30 FE      L01BE     BMI L01BE          ;(2/3)
01C0   EC 00 10             CPX L1000          ;(4)
01C3   F0 FE      L01C3     BEQ L01C3          ;(2/3)
01C5   90 FE      L01C5     BCC L01C5          ;(2/3)
01C7   30 FE      L01C7     BMI L01C7          ;(2/3)
01C9   A0 08                LDY #$08           ;(2)
01CB   C0 07                CPY #$07           ;(2)
01CD   F0 FE      L01CD     BEQ L01CD          ;(2/3)
01CF   90 FE      L01CF     BCC L01CF          ;(2/3)
01D1   30 FE      L01D1     BMI L01D1          ;(2/3)
01D3   C4 10                CPY $10            ;(3)
01D5   F0 FE      L01D5     BEQ L01D5          ;(2/3)
01D7   90 FE      L01D7     BCC L01D7          ;(2/3)
01D9   30 FE      L01D9     BMI L01D9          ;(2/3)
01DB   CC 00 10             CPY L1000          ;(4)
01DE   F0 FE      L01DE     BEQ L01DE          ;(2/3)
01E0   90 FE      L01E0     BCC L01E0          ;(2/3)
01E2   30 FE      L01E2     BMI L01E2          ;(2/3)
01E4   A9 08                LDA #$08           ;(2)
01E6   85 03                STA $03            ;(3)
01E8   A9 05                LDA #$05           ;(2)
01EA   C9 07                CMP #$07           ;(2)
01EC   F0 FE      L01EC     BEQ L01EC          ;(2/3)
01EE   B0 FE      L01EE     BCS L01EE          ;(2/3)
01F0   10 FE      L01F0     BPL L01F0          ;(2/3)
01F2   C5 10                CMP $10            ;(3)
01F4   F0 FE      L01F4     BEQ L01F4          ;(2/3)
01F6   B0 FE      L01F6     BCS L01F6          ;(2/3)
01F8   10 FE      L01F8     BPL L01F8          ;(2/3)
01FA   A2 05                LDX #$05           ;(2)
01FC   E0 07                CPX #$07           ;(2)
01FE   F0 FE      L01FE     BEQ L01FE          ;(2/3)
0200   B0 FE      L0200     BCS L0200          ;(2/3)
0202   10 FE      L0202     BPL L0202          ;(2/3)
0204   E4 10                CPX $10            ;(3)
0206   F0 FE      L0206     BEQ L0206          ;(2/3)
0208   B0 FE      L0208     BCS L0208          ;(2/3)
020A   10 FE      L020A     BPL L020A          ;(2/3)
020C   EC 00 10             CPX L1000          ;(4)
020F   F0 FE      L020F     BEQ L020F          ;(2/3)
0211   B0 FE      L0211     BCS L0211          ;(2/3)
0213   10 FE      L0213     BPL L0213          ;(2/3)
0215   A0 05                LDY #$05           ;(2)
0217   C0 07                CPY #$07           ;(2)
0219   F0 FE      L0219     BEQ L0219          ;(2/3)
021B   B0 FE      L021B     BCS L021B          ;(2/3)
021D   10 FE      L021D     BPL L021D          ;(2/3)
021F   C4 10                CPY $10            ;(3)
0221   F0 FE      L0221     BEQ L0221          ;(2/3)
0223   B0 FE      L0223     BCS L0223          ;(2/3)
0225   10 FE      L0225     BPL L0225          ;(2/3)
0227   CC 00 10             CPY L1000          ;(4)
022A   F0 FE      L022A     BEQ L022A          ;(2/3)
022C   B0 FE      L022C     BCS L022C          ;(2/3)
022E   10 FE      L022E     BPL L022E          ;(2/3)
0230   A9 09                LDA #$09           ;(2)
0232   85 03                STA $03            ;(3)
0234   A2 00                LDX #$00           ;(2)
0236   A9 AA                LDA #$AA           ;(2)
0238   AA                   TAX                ;(2)
0239   10 FE      L0239     BPL L0239          ;(2/3)
023B   F0 FE      L023B     BEQ L023B          ;(2/3)
023D   E0 AA                CPX #$AA           ;(2)
023F   D0 FE      L023F     BNE L023F          ;(2/3)
0241   A9 0A                LDA #$0A           ;(2)
0243   85 03                STA $03            ;(3)
0245   8A                   TXA                ;(2)
0246   10 FE      L0246     BPL L0246          ;(2/3)
0248   F0 FE      L0248     BEQ L0248          ;(2/3)
024A   C9 AA                CMP #$AA           ;(2)
024C   D0 FE      L024C     BNE L024C          ;(2/3)
024E   A9 0B                LDA #$0B           ;(2)
0250   85 03                STA $03            ;(3)
0252   A9 55                LDA #$55           ;(2)
0254   AA                   TAX                ;(2)
0255   30 FE      L0255     BMI L0255          ;(2/3)
0257   F0 FE      L0257     BEQ L0257          ;(2/3)
0259   E0 55                CPX #$55           ;(2)
025B   D0 FE      L025B     BNE L025B          ;(2/3)
025D   A9 0C                LDA #$0C           ;(2)
025F   85 03                STA $03            ;(3)
0261   8A                   TXA                ;(2)
0262   30 FE      L0262     BMI L0262          ;(2/3)
0264   F0 FE      L0264     BEQ L0264          ;(2/3)
0266   C9 55                CMP #$55           ;(2)
0268   D0 FE      L0268     BNE L0268          ;(2/3)
026A   A9 0D                LDA #$0D           ;(2)
026C   85 03                STA $03            ;(3)
026E   A9 00                LDA #$00           ;(2)
0270   AA                   TAX                ;(2)
0271   30 FE      L0271     BMI L0271          ;(2/3)
0273   D0 FE      L0273     BNE L0273          ;(2/3)
0275   E0 00                CPX #$00           ;(2)
0277   D0 FE      L0277     BNE L0277          ;(2/3)
0279   A9 0E                LDA #$0E           ;(2)
027B   85 03                STA $03            ;(3)
027D   8A                   TXA                ;(2)
027E   30 FE      L027E     BMI L027E          ;(2/3)
0280   D0 FE      L0280     BNE L0280          ;(2/3)
0282   C9 00                CMP #$00           ;(2)
0284   D0 FE      L0284     BNE L0284          ;(2/3)
0286   A9 0F                LDA #$0F           ;(2)
0288   85 03                STA $03            ;(3)
028A   A0 00                LDY #$00           ;(2)
028C   A9 AA                LDA #$AA           ;(2)
028E   A8                   TAY                ;(2)
028F   10 FE      L028F     BPL L028F          ;(2/3)
0291   F0 FE      L0291     BEQ L0291          ;(2/3)
0293   C0 AA                CPY #$AA           ;(2)
0295   D0 FE      L0295     BNE L0295          ;(2/3)
0297   A9 10                LDA #$10           ;(2)
0299   85 03                STA $03            ;(3)
029B   98                   TYA                ;(2)
029C   10 FE      L029C     BPL L029C          ;(2/3)
029E   F0 FE      L029E     BEQ L029E          ;(2/3)
02A0   C9 AA                CMP #$AA           ;(2)
02A2   D0 FE      L02A2     BNE L02A2          ;(2/3)
02A4   A9 11                LDA #$11           ;(2)
02A6   85 03                STA $03            ;(3)
02A8   A9 55                LDA #$55           ;(2)
02AA   A8                   TAY                ;(2)
02AB   30 FE      L02AB     BMI L02AB          ;(2/3)
02AD   F0 FE      L02AD     BEQ L02AD          ;(2/3)
02AF   C0 55                CPY #$55           ;(2)
02B1   D0 FE      L02B1     BNE L02B1          ;(2/3)
02B3   A9 12                LDA #$12           ;(2)
02B5   85 03                STA $03            ;(3)
02B7   98                   TYA                ;(2)
02B8   30 FE      L02B8     BMI L02B8          ;(2/3)
02BA   F0 FE      L02BA     BEQ L02BA          ;(2/3)
02BC   C9 55                CMP #$55           ;(2)
02BE   D0 FE      L02BE     BNE L02BE          ;(2/3)
02C0   A9 13                LDA #$13           ;(2)
02C2   85 03                STA $03            ;(3)
02C4   A9 00                LDA #$00           ;(2)
02C6   A8                   TAY                ;(2)
02C7   30 FE      L02C7     BMI L02C7          ;(2/3)
02C9   D0 FE      L02C9     BNE L02C9          ;(2/3)
02CB   C0 00                CPY #$00           ;(2)
02CD   D0 FE      L02CD     BNE L02CD          ;(2/3)
02CF   A9 14                LDA #$14           ;(2)
02D1   85 03                STA $03            ;(3)
02D3   98                   TYA                ;(2)
02D4   30 B9                BMI L028F          ;(2/3)
02D6   D0 FE      L02D6     BNE L02D6          ;(2/3)
02D8   C9 00                CMP #$00           ;(2)
02DA   D0 FE      L02DA     BNE L02DA          ;(2/3)
02DC   A9 15                LDA #$15           ;(2)
02DE   85 03                STA $03            ;(3)
02E0   A2 AA                LDX #$AA           ;(2)
02E2   9A                   TXS                ;(2)
02E3   10 FE      L02E3     BPL L02E3          ;(2/3)
02E5   F0 FE      L02E5     BEQ L02E5          ;(2/3)
02E7   A2 00                LDX #$00           ;(2)
02E9   BA                   TSX                ;(2)
02EA   10 FE      L02EA     BPL L02EA          ;(2/3)
02EC   F0 FE      L02EC     BEQ L02EC          ;(2/3)
02EE   E0 AA                CPX #$AA           ;(2)
02F0   D0 FE      L02F0     BNE L02F0          ;(2/3)
02F2   A9 16                LDA #$16           ;(2)
02F4   85 03                STA $03            ;(3)
02F6   A2 55                LDX #$55           ;(2)
02F8   9A                   TXS                ;(2)
02F9   30 FE      L02F9     BMI L02F9          ;(2/3)
02FB   F0 FE      L02FB     BEQ L02FB          ;(2/3)
02FD   A2 00                LDX #$00           ;(2)
02FF   BA                   TSX                ;(2)
0300   30 FE      L0300     BMI L0300          ;(2/3)
0302   F0 FE      L0302     BEQ L0302          ;(2/3)
0304   E0 55                CPX #$55           ;(2)
0306   D0 FE      L0306     BNE L0306          ;(2/3)
0308   A9 17                LDA #$17           ;(2)
030A   85 03                STA $03            ;(3)
030C   A2 00                LDX #$00           ;(2)
030E   9A                   TXS                ;(2)
030F   30 FE      L030F     BMI L030F          ;(2/3)
0311   D0 FE      L0311     BNE L0311          ;(2/3)
0313   A2 55                LDX #$55           ;(2)
0315   BA                   TSX                ;(2)
0316   30 FE      L0316     BMI L0316          ;(2/3)
0318   D0 FE      L0318     BNE L0318          ;(2/3)
031A   E0 00                CPX #$00           ;(2)
031C   D0 FE      L031C     BNE L031C          ;(2/3)
031E   A9 17                LDA #$17           ;(2)
0320   85 03                STA $03            ;(3)
0322   A9 AA                LDA #$AA           ;(2)
0324   48                   PHA                ;(3)
0325   68                   PLA                ;(4)
0326   F0 FE      L0326     BEQ L0326          ;(2/3)
0328   10 FE      L0328     BPL L0328          ;(2/3)
032A   A9 18                LDA #$18           ;(2)
032C   85 03                STA $03            ;(3)
032E   A9 55                LDA #$55           ;(2)
0330   48                   PHA                ;(3)
0331   68                   PLA                ;(4)
0332   F0 FE      L0332     BEQ L0332          ;(2/3)
0334   30 FE      L0334     BMI L0334          ;(2/3)
0336   A9 19                LDA #$19           ;(2)
0338   85 03                STA $03            ;(3)
033A   A9 00                LDA #$00           ;(2)
033C   48                   PHA                ;(3)
033D   68                   PLA                ;(4)
033E   D0 FE      L033E     BNE L033E          ;(2/3)
0340   30 FE      L0340     BMI L0340          ;(2/3)
0342   A9 1A                LDA #$1A           ;(2)
0344   85 03                STA $03            ;(3)
0346   A2 81                LDX #$81           ;(2)
0348   CA                   DEX                ;(2)
0349   F0 FE      L0349     BEQ L0349          ;(2/3)
034B   10 FE      L034B     BPL L034B          ;(2/3)
034D   CA                   DEX                ;(2)
034E   F0 FE      L034E     BEQ L034E          ;(2/3)
0350   30 FE      L0350     BMI L0350          ;(2/3)
0352   A9 1B                LDA #$1B           ;(2)
0354   85 03                STA $03            ;(3)
0356   A2 02                LDX #$02           ;(2)
0358   CA                   DEX                ;(2)
0359   F0 FE      L0359     BEQ L0359          ;(2/3)
035B   30 FE      L035B     BMI L035B          ;(2/3)
035D   CA                   DEX                ;(2)
035E   D0 FE      L035E     BNE L035E          ;(2/3)
0360   30 FE      L0360     BMI L0360          ;(2/3)
0362   CA                   DEX                ;(2)
0363   F0 FE      L0363     BEQ L0363          ;(2/3)
0365   10 FE      L0365     BPL L0365          ;(2/3)
0367   A9 1C                LDA #$1C           ;(2)
0369   85 03                STA $03            ;(3)
036B   A2 FE                LDX #$FE           ;(2)
036D   E8                   INX                ;(2)
036E   F0 FE      L036E     BEQ L036E          ;(2/3)
0370   10 FE      L0370     BPL L0370          ;(2/3)
0372   E8                   INX                ;(2)
0373   D0 FE      L0373     BNE L0373          ;(2/3)
0375   30 FE      L0375     BMI L0375          ;(2/3)
0377   E8                   INX                ;(2)
0378   F0 FE      L0378     BEQ L0378          ;(2/3)
037A   30 FE      L037A     BMI L037A          ;(2/3)
037C   A9 1D                LDA #$1D           ;(2)
037E   85 03                STA $03            ;(3)
0380   A2 7E                LDX #$7E           ;(2)
0382   E8                   INX                ;(2)
0383   F0 FE      L0383     BEQ L0383          ;(2/3)
0385   30 FE      L0385     BMI L0385          ;(2/3)
0387   E8                   INX                ;(2)
0388   F0 FE      L0388     BEQ L0388          ;(2/3)
038A   10 FE      L038A     BPL L038A          ;(2/3)
038C   A9 1E                LDA #$1E           ;(2)
038E   85 03                STA $03            ;(3)
0390   A0 81                LDY #$81           ;(2)
0392   88                   DEY                ;(2)
0393   F0 FE      L0393     BEQ L0393          ;(2/3)
0395   10 FE      L0395     BPL L0395          ;(2/3)
0397   88                   DEY                ;(2)
0398   F0 FE      L0398     BEQ L0398          ;(2/3)
039A   30 FE      L039A     BMI L039A          ;(2/3)
039C   A9 1F                LDA #$1F           ;(2)
039E   85 03                STA $03            ;(3)
03A0   A0 02                LDY #$02           ;(2)
03A2   88                   DEY                ;(2)
03A3   F0 FE      L03A3     BEQ L03A3          ;(2/3)
03A5   30 FE      L03A5     BMI L03A5          ;(2/3)
03A7   88                   DEY                ;(2)
03A8   D0 FE      L03A8     BNE L03A8          ;(2/3)
03AA   30 FE      L03AA     BMI L03AA          ;(2/3)
03AC   88                   DEY                ;(2)
03AD   F0 FE      L03AD     BEQ L03AD          ;(2/3)
03AF   10 FE      L03AF     BPL L03AF          ;(2/3)
03B1   A9 20                LDA #$20           ;(2)
03B3   85 03                STA $03            ;(3)
03B5   A0 FE                LDY #$FE           ;(2)
03B7   C8                   INY                ;(2)
03B8   F0 FE      L03B8     BEQ L03B8          ;(2/3)
03BA   10 FE      L03BA     BPL L03BA          ;(2/3)
03BC   C8                   INY                ;(2)
03BD   D0 FE      L03BD     BNE L03BD          ;(2/3)
03BF   30 FE      L03BF     BMI L03BF          ;(2/3)
03C1   C8                   INY                ;(2)
03C2   F0 FE      L03C2     BEQ L03C2          ;(2/3)
03C4   30 FE      L03C4     BMI L03C4          ;(2/3)
03C6   A9 21                LDA #$21           ;(2)
03C8   85 03                STA $03            ;(3)
03CA   A0 7E                LDY #$7E           ;(2)
03CC   C8                   INY                ;(2)
03CD   F0 FE      L03CD     BEQ L03CD          ;(2/3)
03CF   30 FE      L03CF     BMI L03CF          ;(2/3)
03D1   C8                   INY                ;(2)
03D2   F0 FE      L03D2     BEQ L03D2          ;(2/3)
03D4   10 FE      L03D4     BPL L03D4          ;(2/3)
03D6   A9 22                LDA #$22           ;(2)
03D8   85 03                STA $03            ;(3)
03DA   A9 A3                LDA #$A3           ;(2)
03DC   85 50                STA $50            ;(3)
03DE   A2 30                LDX #$30           ;(2)
03E0   B5 20                LDA $20,X          ;(4)
03E2   F0 FE      L03E2     BEQ L03E2          ;(2/3)
03E4   10 FE      L03E4     BPL L03E4          ;(2/3)
03E6   C9 A3                CMP #$A3           ;(2)
03E8   D0 FE      L03E8     BNE L03E8          ;(2/3)
03EA   A9 23                LDA #$23           ;(2)
03EC   85 03                STA $03            ;(3)
03EE   A9 A9                LDA #$A9           ;(2)
03F0   85 20                STA $20            ;(3)
03F2   B5 F0                LDA $F0,X          ;(4)
03F4   F0 FE      L03F4     BEQ L03F4          ;(2/3)
03F6   10 FE      L03F6     BPL L03F6          ;(2/3)
03F8   C9 A9                CMP #$A9           ;(2)
03FA   D0 FE      L03FA     BNE L03FA          ;(2/3)
03FC   A9 24                LDA #$24           ;(2)
03FE   85 03                STA $03            ;(3)
0400   A9 33                LDA #$33           ;(2)
0402   85 50                STA $50            ;(3)
0404   B5 20                LDA $20,X          ;(4)
0406   F0 FE      L0406     BEQ L0406          ;(2/3)
0408   30 FE      L0408     BMI L0408          ;(2/3)
040A   C9 33                CMP #$33           ;(2)
040C   D0 FE      L040C     BNE L040C          ;(2/3)
040E   A9 25                LDA #$25           ;(2)
0410   85 03                STA $03            ;(3)
0412   A9 35                LDA #$35           ;(2)
0414   85 20                STA $20            ;(3)
0416   B5 F0                LDA $F0,X          ;(4)
0418   F0 FE      L0418     BEQ L0418          ;(2/3)
041A   30 FE      L041A     BMI L041A          ;(2/3)
041C   C9 35                CMP #$35           ;(2)
041E   D0 FE      L041E     BNE L041E          ;(2/3)
0420   A9 26                LDA #$26           ;(2)
0422   85 03                STA $03            ;(3)
0424   A9 00                LDA #$00           ;(2)
0426   85 50                STA $50            ;(3)
0428   B5 20                LDA $20,X          ;(4)
042A   D0 FE      L042A     BNE L042A          ;(2/3)
042C   30 FE      L042C     BMI L042C          ;(2/3)
042E   C9 00                CMP #$00           ;(2)
0430   D0 FE      L0430     BNE L0430          ;(2/3)
0432   A9 27                LDA #$27           ;(2)
0434   85 03                STA $03            ;(3)
0436   A9 00                LDA #$00           ;(2)
0438   85 20                STA $20            ;(3)
043A   B5 F0                LDA $F0,X          ;(4)
043C   D0 FE      L043C     BNE L043C          ;(2/3)
043E   30 FE      L043E     BMI L043E          ;(2/3)
0440   C9 00                CMP #$00           ;(2)
0442   D0 FE      L0442     BNE L0442          ;(2/3)
0444   A9 28                LDA #$28           ;(2)
0446   85 03                STA $03            ;(3)
0448   A9 AA                LDA #$AA           ;(2)
044A   8D 50 10             STA $1050          ;(4)
044D   A2 30                LDX #$30           ;(2)
044F   BD 20 10             LDA $1020,X        ;(4/5)
0452   F0 FE      L0452     BEQ L0452          ;(2/3)
0454   10 FE      L0454     BPL L0454          ;(2/3)
0456   C9 AA                CMP #$AA           ;(2)
0458   D0 FE      L0458     BNE L0458          ;(2/3)
045A   A9 29                LDA #$29           ;(2)
045C   85 03                STA $03            ;(3)
045E   A9 33                LDA #$33           ;(2)
0460   8D 50 10             STA $1050          ;(4)
0463   BD 20 10             LDA $1020,X        ;(4/5)
0466   F0 FE      L0466     BEQ L0466          ;(2/3)
0468   30 FE      L0468     BMI L0468          ;(2/3)
046A   C9 33                CMP #$33           ;(2)
046C   D0 FE      L046C     BNE L046C          ;(2/3)
046E   A9 2A                LDA #$2A           ;(2)
0470   85 03                STA $03            ;(3)
0472   A9 00                LDA #$00           ;(2)
0474   8D 50 10             STA $1050          ;(4)
0477   BD 20 10             LDA $1020,X        ;(4/5)
047A   D0 FE      L047A     BNE L047A          ;(2/3)
047C   30 FE      L047C     BMI L047C          ;(2/3)
047E   C9 00                CMP #$00           ;(2)
0480   D0 FE      L0480     BNE L0480          ;(2/3)
0482   A9 2B                LDA #$2B           ;(2)
0484   85 03                STA $03            ;(3)
0486   A9 AA                LDA #$AA           ;(2)
0488   8D 50 10             STA $1050          ;(4)
048B   A0 30                LDY #$30           ;(2)
048D   B9 20 10             LDA $1020,Y        ;(4/5)
0490   F0 FE      L0490     BEQ L0490          ;(2/3)
0492   10 FE      L0492     BPL L0492          ;(2/3)
0494   C9 AA                CMP #$AA           ;(2)
0496   D0 FE      L0496     BNE L0496          ;(2/3)
0498   A9 2C                LDA #$2C           ;(2)
049A   85 03                STA $03            ;(3)
049C   A9 33                LDA #$33           ;(2)
049E   8D 50 10             STA $1050          ;(4)
04A1   B9 20 10             LDA $1020,Y        ;(4/5)
04A4   F0 FE      L04A4     BEQ L04A4          ;(2/3)
04A6   30 FE      L04A6     BMI L04A6          ;(2/3)
04A8   C9 33                CMP #$33           ;(2)
04AA   D0 FE      L04AA     BNE L04AA          ;(2/3)
04AC   A9 2D                LDA #$2D           ;(2)
04AE   85 03                STA $03            ;(3)
04B0   A9 00                LDA #$00           ;(2)
04B2   8D 50 10             STA $1050          ;(4)
04B5   B9 20 10             LDA $1020,Y        ;(4/5)
04B8   D0 FE      L04B8     BNE L04B8          ;(2/3)
04BA   30 FE      L04BA     BMI L04BA          ;(2/3)
04BC   C9 00                CMP #$00           ;(2)
04BE   D0 FE      L04BE     BNE L04BE          ;(2/3)
04C0   A9 2E                LDA #$2E           ;(2)
04C2   85 03                STA $03            ;(3)
04C4   85 50                STA $50            ;(3)
04C6   85 20                STA $20            ;(3)
04C8   A2 30                LDX #$30           ;(2)
04CA   A9 CA                LDA #$CA           ;(2)
04CC   95 20                STA $20,X          ;(4)
04CE   A5 50                LDA $50            ;(3)
04D0   C9 CA                CMP #$CA           ;(2)
04D2   D0 FE      L04D2     BNE L04D2          ;(2/3)
04D4   A9 2F                LDA #$2F           ;(2)
04D6   85 03                STA $03            ;(3)
04D8   A9 AC                LDA #$AC           ;(2)
04DA   95 F0                STA $F0,X          ;(4)
04DC   A5 20                LDA $20            ;(3)
04DE   C9 AC                CMP #$AC           ;(2)
04E0   D0 FE      L04E0     BNE L04E0          ;(2/3)
04E2   A9 30                LDA #$30           ;(2)
04E4   85 03                STA $03            ;(3)
04E6   A9 5A                LDA #$5A           ;(2)
04E8   95 20                STA $20,X          ;(4)
04EA   A5 50                LDA $50            ;(3)
04EC   C9 5A                CMP #$5A           ;(2)
04EE   D0 FE      L04EE     BNE L04EE          ;(2/3)
04F0   A9 31                LDA #$31           ;(2)
04F2   85 03                STA $03            ;(3)
04F4   A9 5C                LDA #$5C           ;(2)
04F6   95 F0                STA $F0,X          ;(4)
04F8   A5 20                LDA $20            ;(3)
04FA   C9 5C                CMP #$5C           ;(2)
04FC   D0 FE      L04FC     BNE L04FC          ;(2/3)
04FE   A9 32                LDA #$32           ;(2)
0500   85 03                STA $03            ;(3)
0502   A9 00                LDA #$00           ;(2)
0504   95 20                STA $20,X          ;(4)
0506   A5 50                LDA $50            ;(3)
0508   D0 FE      L0508     BNE L0508          ;(2/3)
050A   A9 33                LDA #$33           ;(2)
050C   85 03                STA $03            ;(3)
050E   A9 00                LDA #$00           ;(2)
0510   95 F0                STA $F0,X          ;(4)
0512   A5 20                LDA $20            ;(3)
0514   D0 FE      L0514     BNE L0514          ;(2/3)
0516   A9 34                LDA #$34           ;(2)
0518   85 03                STA $03            ;(3)
051A   8D 50 10             STA $1050          ;(4)
051D   A9 AA                LDA #$AA           ;(2)
051F   9D 20 10             STA $1020,X        ;(5)
0522   AD 50 10             LDA $1050          ;(4)
0525   C9 AA                CMP #$AA           ;(2)
0527   D0 FE      L0527     BNE L0527          ;(2/3)
0529   A9 35                LDA #$35           ;(2)
052B   85 03                STA $03            ;(3)
052D   8D 50 10             STA $1050          ;(4)
0530   A9 55                LDA #$55           ;(2)
0532   9D 20 10             STA $1020,X        ;(5)
0535   AD 50 10             LDA $1050          ;(4)
0538   C9 55                CMP #$55           ;(2)
053A   D0 FE      L053A     BNE L053A          ;(2/3)
053C   A9 36                LDA #$36           ;(2)
053E   85 03                STA $03            ;(3)
0540   8D 50 10             STA $1050          ;(4)
0543   A9 00                LDA #$00           ;(2)
0545   9D 20 10             STA $1020,X        ;(5)
0548   AD 50 10             LDA $1050          ;(4)
054B   D0 FE      L054B     BNE L054B          ;(2/3)
054D   A9 37                LDA #$37           ;(2)
054F   85 03                STA $03            ;(3)
0551   8D 50 10             STA $1050          ;(4)
0554   A9 AA                LDA #$AA           ;(2)
0556   99 20 10             STA $1020,Y        ;(5)
0559   AD 50 10             LDA $1050          ;(4)
055C   C9 AA                CMP #$AA           ;(2)
055E   D0 FE      L055E     BNE L055E          ;(2/3)
0560   A9 38                LDA #$38           ;(2)
0562   85 03                STA $03            ;(3)
0564   8D 50 10             STA $1050          ;(4)
0567   A9 55                LDA #$55           ;(2)
0569   9D 20 10             STA $1020,X        ;(5)
056C   AD 50 10             LDA $1050          ;(4)
056F   C9 55                CMP #$55           ;(2)
0571   D0 FE      L0571     BNE L0571          ;(2/3)
0573   A9 39                LDA #$39           ;(2)
0575   85 03                STA $03            ;(3)
0577   8D 50 10             STA $1050          ;(4)
057A   A9 00                LDA #$00           ;(2)
057C   9D 20 10             STA $1020,X        ;(5)
057F   AD 50 10             LDA $1050          ;(4)
0582   D0 FE      L0582     BNE L0582          ;(2/3)
0584   A9 3A                LDA #$3A           ;(2)
0586   85 03                STA $03            ;(3)
0588   A9 AA                LDA #$AA           ;(2)
058A   85 50                STA $50            ;(3)
058C   8D AA 10             STA $10AA          ;(4)
058F   A9 10                LDA #$10           ;(2)
0591   85 51                STA $51            ;(3)
0593   A2 30                LDX #$30           ;(2)
0595   A1 20                LDA ($20,X)        ;(6)
0597   F0 FE      L0597     BEQ L0597          ;(2/3)
0599   10 FE      L0599     BPL L0599          ;(2/3)
059B   C9 AA                CMP #$AA           ;(2)
059D   D0 FE      L059D     BNE L059D          ;(2/3)
059F   A9 3B                LDA #$3B           ;(2)
05A1   85 03                STA $03            ;(3)
05A3   A9 AA                LDA #$AA           ;(2)
05A5   85 20                STA $20            ;(3)
05A7   A9 10                LDA #$10           ;(2)
05A9   85 21                STA L0021          ;(3)
05AB   A1 F0                LDA ($F0,X)        ;(6)
05AD   F0 FE      L05AD     BEQ L05AD          ;(2/3)
05AF   10 FE      L05AF     BPL L05AF          ;(2/3)
05B1   C9 AA                CMP #$AA           ;(2)
05B3   D0 FE      L05B3     BNE L05B3          ;(2/3)
05B5   A9 3C                LDA #$3C           ;(2)
05B7   85 03                STA $03            ;(3)
05B9   A9 33                LDA #$33           ;(2)
05BB   8D AA 10             STA $10AA          ;(4)
05BE   A1 20                LDA ($20,X)        ;(6)
05C0   F0 FE      L05C0     BEQ L05C0          ;(2/3)
05C2   30 FE      L05C2     BMI L05C2          ;(2/3)
05C4   C9 33                CMP #$33           ;(2)
05C6   D0 FE      L05C6     BNE L05C6          ;(2/3)
05C8   A9 3D                LDA #$3D           ;(2)
05CA   85 03                STA $03            ;(3)
05CC   A9 33                LDA #$33           ;(2)
05CE   8D AA 10             STA $10AA          ;(4)
05D1   A1 F0                LDA ($F0,X)        ;(6)
05D3   F0 FE      L05D3     BEQ L05D3          ;(2/3)
05D5   30 FE      L05D5     BMI L05D5          ;(2/3)
05D7   C9 33                CMP #$33           ;(2)
05D9   D0 FE      L05D9     BNE L05D9          ;(2/3)
05DB   A9 3E                LDA #$3E           ;(2)
05DD   85 03                STA $03            ;(3)
05DF   A9 00                LDA #$00           ;(2)
05E1   8D AA 10             STA $10AA          ;(4)
05E4   A1 20                LDA ($20,X)        ;(6)
05E6   D0 FE      L05E6     BNE L05E6          ;(2/3)
05E8   30 FE      L05E8     BMI L05E8          ;(2/3)
05EA   C9 00                CMP #$00           ;(2)
05EC   D0 FE      L05EC     BNE L05EC          ;(2/3)
05EE   A9 3F                LDA #$3F           ;(2)
05F0   85 03                STA $03            ;(3)
05F2   A9 00                LDA #$00           ;(2)
05F4   8D AA 10             STA $10AA          ;(4)
05F7   A1 F0                LDA ($F0,X)        ;(6)
05F9   D0 FE      L05F9     BNE L05F9          ;(2/3)
05FB   30 FE      L05FB     BMI L05FB          ;(2/3)
05FD   C9 00                CMP #$00           ;(2)
05FF   D0 FE      L05FF     BNE L05FF          ;(2/3)
0601   A9 40                LDA #$40           ;(2)
0603   85 03                STA $03            ;(3)
0605   A9 AA                LDA #$AA           ;(2)
0607   8D AA 10             STA $10AA          ;(4)
060A   A9 00                LDA #$00           ;(2)
060C   85 50                STA $50            ;(3)
060E   A9 10                LDA #$10           ;(2)
0610   85 51                STA $51            ;(3)
0612   A0 AA                LDY #$AA           ;(2)
0614   B1 50                LDA ($50),Y        ;(5/6)
0616   F0 FE      L0616     BEQ L0616          ;(2/3)
0618   10 FE      L0618     BPL L0618          ;(2/3)
061A   C9 AA                CMP #$AA           ;(2)
061C   D0 FE      L061C     BNE L061C          ;(2/3)
061E   A9 41                LDA #$41           ;(2)
0620   85 03                STA $03            ;(3)
0622   A9 55                LDA #$55           ;(2)
0624   8D AA 10             STA $10AA          ;(4)
0627   B1 50                LDA ($50),Y        ;(5/6)
0629   F0 FE      L0629     BEQ L0629          ;(2/3)
062B   30 FE      L062B     BMI L062B          ;(2/3)
062D   C9 55                CMP #$55           ;(2)
062F   D0 FE      L062F     BNE L062F          ;(2/3)
0631   A9 42                LDA #$42           ;(2)
0633   85 03                STA $03            ;(3)
0635   A9 00                LDA #$00           ;(2)
0637   8D AA 10             STA $10AA          ;(4)
063A   B1 50                LDA ($50),Y        ;(5/6)
063C   D0 FE      L063C     BNE L063C          ;(2/3)
063E   30 FE      L063E     BMI L063E          ;(2/3)
0640   C9 00                CMP #$00           ;(2)
0642   D0 FE      L0642     BNE L0642          ;(2/3)
0644   A9 43                LDA #$43           ;(2)
0646   85 03                STA $03            ;(3)
0648   8D AA 10             STA $10AA          ;(4)
064B   A9 10                LDA #$10           ;(2)
064D   85 51                STA $51            ;(3)
064F   A9 AA                LDA #$AA           ;(2)
0651   85 50                STA $50            ;(3)
0653   A2 30                LDX #$30           ;(2)
0655   81 20                STA ($20,X)        ;(6)
0657   AD AA 10             LDA $10AA          ;(4)
065A   C9 AA                CMP #$AA           ;(2)
065C   D0 FE      L065C     BNE L065C          ;(2/3)
065E   A9 44                LDA #$44           ;(2)
0660   85 03                STA $03            ;(3)
0662   8D AA 10             STA $10AA          ;(4)
0665   A9 AA                LDA #$AA           ;(2)
0667   85 20                STA $20            ;(3)
0669   A9 10                LDA #$10           ;(2)
066B   85 21                STA L0021          ;(3)
066D   A9 AA                LDA #$AA           ;(2)
066F   81 F0                STA ($F0,X)        ;(6)
0671   AD AA 10             LDA $10AA          ;(4)
0674   C9 AA                CMP #$AA           ;(2)
0676   D0 FE      L0676     BNE L0676          ;(2/3)
0678   A9 45                LDA #$45           ;(2)
067A   85 03                STA $03            ;(3)
067C   8D AA 10             STA $10AA          ;(4)
067F   A9 55                LDA #$55           ;(2)
0681   81 20                STA ($20,X)        ;(6)
0683   AD AA 10             LDA $10AA          ;(4)
0686   C9 55                CMP #$55           ;(2)
0688   D0 FE      L0688     BNE L0688          ;(2/3)
068A   A9 46                LDA #$46           ;(2)
068C   85 03                STA $03            ;(3)
068E   8D AA 10             STA $10AA          ;(4)
0691   A9 55                LDA #$55           ;(2)
0693   81 F0                STA ($F0,X)        ;(6)
0695   AD AA 10             LDA $10AA          ;(4)
0698   C9 55                CMP #$55           ;(2)
069A   D0 FE      L069A     BNE L069A          ;(2/3)
069C   A9 47                LDA #$47           ;(2)
069E   85 03                STA $03            ;(3)
06A0   8D AA 10             STA $10AA          ;(4)
06A3   A9 00                LDA #$00           ;(2)
06A5   81 20                STA ($20,X)        ;(6)
06A7   AD AA 10             LDA $10AA          ;(4)
06AA   D0 FE      L06AA     BNE L06AA          ;(2/3)
06AC   A9 47                LDA #$47           ;(2)
06AE   85 03                STA $03            ;(3)
06B0   8D AA 10             STA $10AA          ;(4)
06B3   A9 00                LDA #$00           ;(2)
06B5   81 F0                STA ($F0,X)        ;(6)
06B7   AD AA 10             LDA $10AA          ;(4)
06BA   D0 FE      L06BA     BNE L06BA          ;(2/3)
06BC   A9 49                LDA #$49           ;(2)
06BE   85 03                STA $03            ;(3)
06C0   8D AA 10             STA $10AA          ;(4)
06C3   A9 10                LDA #$10           ;(2)
06C5   85 19                STA $19            ;(3)
06C7   A9 00                LDA #$00           ;(2)
06C9   85 18                STA $18            ;(3)
06CB   A0 AA                LDY #$AA           ;(2)
06CD   A9 AA                LDA #$AA           ;(2)
06CF   91 18                STA ($18),Y        ;(6)
06D1   AD AA 10             LDA $10AA          ;(4)
06D4   C9 AA                CMP #$AA           ;(2)
06D6   D0 FE      L06D6     BNE L06D6          ;(2/3)
06D8   A9 4A                LDA #$4A           ;(2)
06DA   85 03                STA $03            ;(3)
06DC   8D AA 10             STA $10AA          ;(4)
06DF   A9 55                LDA #$55           ;(2)
06E1   91 18                STA ($18),Y        ;(6)
06E3   AD AA 10             LDA $10AA          ;(4)
06E6   C9 55                CMP #$55           ;(2)
06E8   D0 FE      L06E8     BNE L06E8          ;(2/3)
06EA   A9 56                LDA #$56           ;(2)
06EC   85 03                STA $03            ;(3)
06EE   8D AA 10             STA $10AA          ;(4)
06F1   A9 00                LDA #$00           ;(2)
06F3   91 18                STA ($18),Y        ;(6)
06F5   AD AA 10             LDA $10AA          ;(4)
06F8   D0 FE      L06F8     BNE L06F8          ;(2/3)
06FA   A9 4C                LDA #$4C           ;(2)
06FC   85 03                STA $03            ;(3)
06FE   D8                   CLD                ;(2)
06FF   A9 30                LDA #$30           ;(2)
0701   85 10                STA $10            ;(3)
0703   8D 00 10             STA L1000          ;(4)
0706   18                   CLC                ;(2)
0707   69 30                ADC #$30           ;(2)
0709   B0 FE      L0709     BCS L0709          ;(2/3)
070B   70 FE      L070B     BVS L070B          ;(2/3)
070D   F0 FE      L070D     BEQ L070D          ;(2/3)
070F   30 FE      L070F     BMI L070F          ;(2/3)
0711   C9 60                CMP #$60           ;(2)
0713   D0 FE      L0713     BNE L0713          ;(2/3)
0715   A9 4D                LDA #$4D           ;(2)
0717   85 03                STA $03            ;(3)
0719   18                   CLC                ;(2)
071A   A9 30                LDA #$30           ;(2)
071C   65 10                ADC $10            ;(3)
071E   B0 FE      L071E     BCS L071E          ;(2/3)
0720   70 FE      L0720     BVS L0720          ;(2/3)
0722   F0 FE      L0722     BEQ L0722          ;(2/3)
0724   30 FE      L0724     BMI L0724          ;(2/3)
0726   C9 60                CMP #$60           ;(2)
0728   D0 FE      L0728     BNE L0728          ;(2/3)
072A   A9 4E                LDA #$4E           ;(2)
072C   85 03                STA $03            ;(3)
072E   18                   CLC                ;(2)
072F   A9 30                LDA #$30           ;(2)
0731   6D 00 10             ADC L1000          ;(4)
0734   B0 FE      L0734     BCS L0734          ;(2/3)
0736   70 FE      L0736     BVS L0736          ;(2/3)
0738   F0 FE      L0738     BEQ L0738          ;(2/3)
073A   30 FE      L073A     BMI L073A          ;(2/3)
073C   C9 60                CMP #$60           ;(2)
073E   D0 FE      L073E     BNE L073E          ;(2/3)
0740   A9 4F                LDA #$4F           ;(2)
0742   85 03                STA $03            ;(3)
0744   A9 30                LDA #$30           ;(2)
0746   AA                   TAX                ;(2)
0747   95 30                STA $30,X          ;(4)
0749   18                   CLC                ;(2)
074A   75 30                ADC $30,X          ;(4)
074C   B0 FE      L074C     BCS L074C          ;(2/3)
074E   70 FE      L074E     BVS L074E          ;(2/3)
0750   F0 FE      L0750     BEQ L0750          ;(2/3)
0752   30 FE      L0752     BMI L0752          ;(2/3)
0754   C9 60                CMP #$60           ;(2)
0756   D0 FE      L0756     BNE L0756          ;(2/3)
0758   A9 50                LDA #$50           ;(2)
075A   85 03                STA $03            ;(3)
075C   A9 30                LDA #$30           ;(2)
075E   9D 00 10             STA L1000,X        ;(5)
0761   18                   CLC                ;(2)
0762   7D 00 10             ADC L1000,X        ;(4/5)
0765   B0 FE      L0765     BCS L0765          ;(2/3)
0767   70 FE      L0767     BVS L0767          ;(2/3)
0769   F0 FE      L0769     BEQ L0769          ;(2/3)
076B   30 FE      L076B     BMI L076B          ;(2/3)
076D   C9 60                CMP #$60           ;(2)
076F   D0 FE      L076F     BNE L076F          ;(2/3)
0771   A9 51                LDA #$51           ;(2)
0773   85 03                STA $03            ;(3)
0775   A9 30                LDA #$30           ;(2)
0777   A8                   TAY                ;(2)
0778   99 00 10             STA L1000,Y        ;(5)
077B   18                   CLC                ;(2)
077C   79 00 10             ADC L1000,Y        ;(4/5)
077F   B0 FE      L077F     BCS L077F          ;(2/3)
0781   70 FE      L0781     BVS L0781          ;(2/3)
0783   F0 FE      L0783     BEQ L0783          ;(2/3)
0785   30 FE      L0785     BMI L0785          ;(2/3)
0787   C9 60                CMP #$60           ;(2)
0789   D0 FE      L0789     BNE L0789          ;(2/3)
078B   A9 52                LDA #$52           ;(2)
078D   85 03                STA $03            ;(3)
078F   A9 10                LDA #$10           ;(2)
0791   85 51                STA $51            ;(3)
0793   85 21                STA L0021          ;(3)
0795   A9 AA                LDA #$AA           ;(2)
0797   85 50                STA $50            ;(3)
0799   85 20                STA $20            ;(3)
079B   A2 30                LDX #$30           ;(2)
079D   8A                   TXA                ;(2)
079E   81 20                STA ($20,X)        ;(6)
07A0   18                   CLC                ;(2)
07A1   61 20                ADC ($20,X)        ;(6)
07A3   B0 FE      L07A3     BCS L07A3          ;(2/3)
07A5   70 FE      L07A5     BVS L07A5          ;(2/3)
07A7   F0 FE      L07A7     BEQ L07A7          ;(2/3)
07A9   30 FE      L07A9     BMI L07A9          ;(2/3)
07AB   C9 60                CMP #$60           ;(2)
07AD   D0 FE      L07AD     BNE L07AD          ;(2/3)
07AF   A9 53                LDA #$53           ;(2)
07B1   85 03                STA $03            ;(3)
07B3   A9 30                LDA #$30           ;(2)
07B5   81 F0                STA ($F0,X)        ;(6)
07B7   18                   CLC                ;(2)
07B8   61 F0                ADC ($F0,X)        ;(6)
07BA   B0 FE      L07BA     BCS L07BA          ;(2/3)
07BC   70 FE      L07BC     BVS L07BC          ;(2/3)
07BE   F0 FE      L07BE     BEQ L07BE          ;(2/3)
07C0   30 FE      L07C0     BMI L07C0          ;(2/3)
07C2   C9 60                CMP #$60           ;(2)
07C4   D0 FE      L07C4     BNE L07C4          ;(2/3)
07C6   A9 54                LDA #$54           ;(2)
07C8   85 03                STA $03            ;(3)
07CA   A9 D0                LDA #$D0           ;(2)
07CC   85 10                STA $10            ;(3)
07CE   8D 00 10             STA L1000          ;(4)
07D1   18                   CLC                ;(2)
07D2   A9 30                LDA #$30           ;(2)
07D4   69 D0                ADC #$D0           ;(2)
07D6   90 FE      L07D6     BCC L07D6          ;(2/3)
07D8   70 FE      L07D8     BVS L07D8          ;(2/3)
07DA   D0 FE      L07DA     BNE L07DA          ;(2/3)
07DC   30 FE      L07DC     BMI L07DC          ;(2/3)
07DE   C9 00                CMP #$00           ;(2)
07E0   D0 FE      L07E0     BNE L07E0          ;(2/3)
07E2   A9 55                LDA #$55           ;(2)
07E4   85 03                STA $03            ;(3)
07E6   18                   CLC                ;(2)
07E7   A9 30                LDA #$30           ;(2)
07E9   65 10                ADC $10            ;(3)
07EB   90 FE      L07EB     BCC L07EB          ;(2/3)
07ED   70 FE      L07ED     BVS L07ED          ;(2/3)
07EF   D0 FE      L07EF     BNE L07EF          ;(2/3)
07F1   30 FE      L07F1     BMI L07F1          ;(2/3)
07F3   C9 00                CMP #$00           ;(2)
07F5   D0 FE      L07F5     BNE L07F5          ;(2/3)
07F7   A9 56                LDA #$56           ;(2)
07F9   85 03                STA $03            ;(3)
07FB   18                   CLC                ;(2)
07FC   A9 30                LDA #$30           ;(2)
07FE   6D 00 10             ADC L1000          ;(4)
0801   90 FE      L0801     BCC L0801          ;(2/3)
0803   70 FE      L0803     BVS L0803          ;(2/3)
0805   D0 FE      L0805     BNE L0805          ;(2/3)
0807   30 FE      L0807     BMI L0807          ;(2/3)
0809   C9 00                CMP #$00           ;(2)
080B   D0 FE      L080B     BNE L080B          ;(2/3)
080D   A9 57                LDA #$57           ;(2)
080F   85 03                STA $03            ;(3)
0811   A2 30                LDX #$30           ;(2)
0813   A9 D0                LDA #$D0           ;(2)
0815   95 30                STA $30,X          ;(4)
0817   18                   CLC                ;(2)
0818   A9 30                LDA #$30           ;(2)
081A   75 30                ADC $30,X          ;(4)
081C   90 FE      L081C     BCC L081C          ;(2/3)
081E   70 FE      L081E     BVS L081E          ;(2/3)
0820   D0 FE      L0820     BNE L0820          ;(2/3)
0822   30 FE      L0822     BMI L0822          ;(2/3)
0824   C9 00                CMP #$00           ;(2)
0826   D0 FE      L0826     BNE L0826          ;(2/3)
0828   A9 58                LDA #$58           ;(2)
082A   85 03                STA $03            ;(3)
082C   A9 D0                LDA #$D0           ;(2)
082E   9D 00 10             STA L1000,X        ;(5)
0831   18                   CLC                ;(2)
0832   A9 30                LDA #$30           ;(2)
0834   7D 00 10             ADC L1000,X        ;(4/5)
0837   90 FE      L0837     BCC L0837          ;(2/3)
0839   70 FE      L0839     BVS L0839          ;(2/3)
083B   D0 FE      L083B     BNE L083B          ;(2/3)
083D   30 FE      L083D     BMI L083D          ;(2/3)
083F   C9 00                CMP #$00           ;(2)
0841   D0 FE      L0841     BNE L0841          ;(2/3)
0843   A9 59                LDA #$59           ;(2)
0845   85 03                STA $03            ;(3)
0847   A0 30                LDY #$30           ;(2)
0849   A9 D0                LDA #$D0           ;(2)
084B   99 00 10             STA L1000,Y        ;(5)
084E   18                   CLC                ;(2)
084F   A9 30                LDA #$30           ;(2)
0851   79 00 10             ADC L1000,Y        ;(4/5)
0854   90 FE      L0854     BCC L0854          ;(2/3)
0856   70 FE      L0856     BVS L0856          ;(2/3)
0858   D0 FE      L0858     BNE L0858          ;(2/3)
085A   30 FE      L085A     BMI L085A          ;(2/3)
085C   C9 00                CMP #$00           ;(2)
085E   D0 FE      L085E     BNE L085E          ;(2/3)
0860   A9 5A                LDA #$5A           ;(2)
0862   85 03                STA $03            ;(3)
0864   A9 10                LDA #$10           ;(2)
0866   85 51                STA $51            ;(3)
0868   85 21                STA L0021          ;(3)
086A   A9 AA                LDA #$AA           ;(2)
086C   85 50                STA $50            ;(3)
086E   85 20                STA $20            ;(3)
0870   A9 D0                LDA #$D0           ;(2)
0872   81 20                STA ($20,X)        ;(6)
0874   18                   CLC                ;(2)
0875   A9 30                LDA #$30           ;(2)
0877   61 20                ADC ($20,X)        ;(6)
0879   90 FE      L0879     BCC L0879          ;(2/3)
087B   70 FE      L087B     BVS L087B          ;(2/3)
087D   D0 FE      L087D     BNE L087D          ;(2/3)
087F   30 FE      L087F     BMI L087F          ;(2/3)
0881   C9 00                CMP #$00           ;(2)
0883   D0 FE      L0883     BNE L0883          ;(2/3)
0885   A9 5B                LDA #$5B           ;(2)
0887   85 03                STA $03            ;(3)
0889   A9 D0                LDA #$D0           ;(2)
088B   81 F0                STA ($F0,X)        ;(6)
088D   18                   CLC                ;(2)
088E   A9 30                LDA #$30           ;(2)
0890   61 F0                ADC ($F0,X)        ;(6)
0892   90 FE      L0892     BCC L0892          ;(2/3)
0894   70 FE      L0894     BVS L0894          ;(2/3)
0896   D0 FE      L0896     BNE L0896          ;(2/3)
0898   30 FE      L0898     BMI L0898          ;(2/3)
089A   C9 00                CMP #$00           ;(2)
089C   D0 FE      L089C     BNE L089C          ;(2/3)
089E   A9 5C                LDA #$5C           ;(2)
08A0   85 03                STA $03            ;(3)
08A2   A9 50                LDA #$50           ;(2)
08A4   85 10                STA $10            ;(3)
08A6   8D 00 10             STA L1000          ;(4)
08A9   18                   CLC                ;(2)
08AA   A9 30                LDA #$30           ;(2)
08AC   69 50                ADC #$50           ;(2)
08AE   B0 FE      L08AE     BCS L08AE          ;(2/3)
08B0   50 FE      L08B0     BVC L08B0          ;(2/3)
08B2   F0 FE      L08B2     BEQ L08B2          ;(2/3)
08B4   10 FE      L08B4     BPL L08B4          ;(2/3)
08B6   C9 80                CMP #$80           ;(2)
08B8   D0 FE      L08B8     BNE L08B8          ;(2/3)
08BA   A9 5D                LDA #$5D           ;(2)
08BC   85 03                STA $03            ;(3)
08BE   18                   CLC                ;(2)
08BF   A9 30                LDA #$30           ;(2)
08C1   65 10                ADC $10            ;(3)
08C3   B0 FE      L08C3     BCS L08C3          ;(2/3)
08C5   50 FE      L08C5     BVC L08C5          ;(2/3)
08C7   F0 FE      L08C7     BEQ L08C7          ;(2/3)
08C9   10 FE      L08C9     BPL L08C9          ;(2/3)
08CB   C9 80                CMP #$80           ;(2)
08CD   D0 FE      L08CD     BNE L08CD          ;(2/3)
08CF   A9 5E                LDA #$5E           ;(2)
08D1   85 03                STA $03            ;(3)
08D3   18                   CLC                ;(2)
08D4   A9 30                LDA #$30           ;(2)
08D6   6D 00 10             ADC L1000          ;(4)
08D9   B0 FE      L08D9     BCS L08D9          ;(2/3)
08DB   50 FE      L08DB     BVC L08DB          ;(2/3)
08DD   F0 FE      L08DD     BEQ L08DD          ;(2/3)
08DF   10 FE      L08DF     BPL L08DF          ;(2/3)
08E1   C9 80                CMP #$80           ;(2)
08E3   D0 FE      L08E3     BNE L08E3          ;(2/3)
08E5   A9 5F                LDA #$5F           ;(2)
08E7   85 03                STA $03            ;(3)
08E9   A2 30                LDX #$30           ;(2)
08EB   A9 50                LDA #$50           ;(2)
08ED   95 30                STA $30,X          ;(4)
08EF   18                   CLC                ;(2)
08F0   A9 30                LDA #$30           ;(2)
08F2   75 30                ADC $30,X          ;(4)
08F4   B0 FE      L08F4     BCS L08F4          ;(2/3)
08F6   50 FE      L08F6     BVC L08F6          ;(2/3)
08F8   F0 FE      L08F8     BEQ L08F8          ;(2/3)
08FA   10 FE      L08FA     BPL L08FA          ;(2/3)
08FC   C9 80                CMP #$80           ;(2)
08FE   D0 FE      L08FE     BNE L08FE          ;(2/3)
0900   A9 60                LDA #$60           ;(2)
0902   85 03                STA $03            ;(3)
0904   A9 50                LDA #$50           ;(2)
0906   9D 00 10             STA L1000,X        ;(5)
0909   18                   CLC                ;(2)
090A   A9 30                LDA #$30           ;(2)
090C   7D 00 10             ADC L1000,X        ;(4/5)
090F   B0 FE      L090F     BCS L090F          ;(2/3)
0911   50 FE      L0911     BVC L0911          ;(2/3)
0913   F0 FE      L0913     BEQ L0913          ;(2/3)
0915   10 FE      L0915     BPL L0915          ;(2/3)
0917   C9 80                CMP #$80           ;(2)
0919   D0 FE      L0919     BNE L0919          ;(2/3)
091B   A9 61                LDA #$61           ;(2)
091D   85 03                STA $03            ;(3)
091F   A0 30                LDY #$30           ;(2)
0921   A9 50                LDA #$50           ;(2)
0923   99 00 10             STA L1000,Y        ;(5)
0926   18                   CLC                ;(2)
0927   A9 30                LDA #$30           ;(2)
0929   79 00 10             ADC L1000,Y        ;(4/5)
092C   B0 FE      L092C     BCS L092C          ;(2/3)
092E   50 FE      L092E     BVC L092E          ;(2/3)
0930   F0 FE      L0930     BEQ L0930          ;(2/3)
0932   10 FE      L0932     BPL L0932          ;(2/3)
0934   C9 80                CMP #$80           ;(2)
0936   D0 FE      L0936     BNE L0936          ;(2/3)
0938   A9 62                LDA #$62           ;(2)
093A   85 03                STA $03            ;(3)
093C   A9 10                LDA #$10           ;(2)
093E   85 51                STA $51            ;(3)
0940   85 21                STA L0021          ;(3)
0942   A9 AA                LDA #$AA           ;(2)
0944   85 50                STA $50            ;(3)
0946   85 20                STA $20            ;(3)
0948   A9 50                LDA #$50           ;(2)
094A   81 20                STA ($20,X)        ;(6)
094C   18                   CLC                ;(2)
094D   A9 30                LDA #$30           ;(2)
094F   61 20                ADC ($20,X)        ;(6)
0951   B0 FE      L0951     BCS L0951          ;(2/3)
0953   50 FE      L0953     BVC L0953          ;(2/3)
0955   F0 FE      L0955     BEQ L0955          ;(2/3)
0957   10 FE      L0957     BPL L0957          ;(2/3)
0959   C9 80                CMP #$80           ;(2)
095B   D0 FE      L095B     BNE L095B          ;(2/3)
095D   A9 63                LDA #$63           ;(2)
095F   85 03                STA $03            ;(3)
0961   A9 50                LDA #$50           ;(2)
0963   81 F0                STA ($F0,X)        ;(6)
0965   18                   CLC                ;(2)
0966   A9 30                LDA #$30           ;(2)
0968   61 F0                ADC ($F0,X)        ;(6)
096A   B0 FE      L096A     BCS L096A          ;(2/3)
096C   50 FE      L096C     BVC L096C          ;(2/3)
096E   F0 FE      L096E     BEQ L096E          ;(2/3)
0970   10 FE      L0970     BPL L0970          ;(2/3)
0972   C9 80                CMP #$80           ;(2)
0974   D0 FE      L0974     BNE L0974          ;(2/3)
0976   A9 64                LDA #$64           ;(2)
0978   85 03                STA $03            ;(3)
097A   A9 FF                LDA #$FF           ;(2)
097C   85 10                STA $10            ;(3)
097E   8D 00 10             STA L1000          ;(4)
0981   18                   CLC                ;(2)
0982   A9 80                LDA #$80           ;(2)
0984   69 FF                ADC #$FF           ;(2)
0986   90 FE      L0986     BCC L0986          ;(2/3)
0988   50 FE      L0988     BVC L0988          ;(2/3)
098A   F0 FE      L098A     BEQ L098A          ;(2/3)
098C   30 FE      L098C     BMI L098C          ;(2/3)
098E   C9 7F                CMP #$7F           ;(2)
0990   D0 FE      L0990     BNE L0990          ;(2/3)
0992   A9 65                LDA #$65           ;(2)
0994   85 03                STA $03            ;(3)
0996   18                   CLC                ;(2)
0997   A9 80                LDA #$80           ;(2)
0999   65 10                ADC $10            ;(3)
099B   90 FE      L099B     BCC L099B          ;(2/3)
099D   50 FE      L099D     BVC L099D          ;(2/3)
099F   F0 FE      L099F     BEQ L099F          ;(2/3)
09A1   30 FE      L09A1     BMI L09A1          ;(2/3)
09A3   C9 7F                CMP #$7F           ;(2)
09A5   D0 FE      L09A5     BNE L09A5          ;(2/3)
09A7   A9 66                LDA #$66           ;(2)
09A9   85 03                STA $03            ;(3)
09AB   18                   CLC                ;(2)
09AC   A9 80                LDA #$80           ;(2)
09AE   6D 00 10             ADC L1000          ;(4)
09B1   90 FE      L09B1     BCC L09B1          ;(2/3)
09B3   50 FE      L09B3     BVC L09B3          ;(2/3)
09B5   F0 FE      L09B5     BEQ L09B5          ;(2/3)
09B7   30 FE      L09B7     BMI L09B7          ;(2/3)
09B9   C9 7F                CMP #$7F           ;(2)
09BB   D0 FE      L09BB     BNE L09BB          ;(2/3)
09BD   A9 67                LDA #$67           ;(2)
09BF   85 03                STA $03            ;(3)
09C1   A2 80                LDX #$80           ;(2)
09C3   A9 FF                LDA #$FF           ;(2)
09C5   95 30                STA $30,X          ;(4)
09C7   18                   CLC                ;(2)
09C8   A9 80                LDA #$80           ;(2)
09CA   75 30                ADC $30,X          ;(4)
09CC   90 FE      L09CC     BCC L09CC          ;(2/3)
09CE   50 FE      L09CE     BVC L09CE          ;(2/3)
09D0   F0 FE      L09D0     BEQ L09D0          ;(2/3)
09D2   30 FE      L09D2     BMI L09D2          ;(2/3)
09D4   C9 7F                CMP #$7F           ;(2)
09D6   D0 FE      L09D6     BNE L09D6          ;(2/3)
09D8   A9 68                LDA #$68           ;(2)
09DA   85 03                STA $03            ;(3)
09DC   A9 FF                LDA #$FF           ;(2)
09DE   9D 00 10             STA L1000,X        ;(5)
09E1   18                   CLC                ;(2)
09E2   A9 80                LDA #$80           ;(2)
09E4   7D 00 10             ADC L1000,X        ;(4/5)
09E7   90 FE      L09E7     BCC L09E7          ;(2/3)
09E9   50 FE      L09E9     BVC L09E9          ;(2/3)
09EB   F0 FE      L09EB     BEQ L09EB          ;(2/3)
09ED   30 FE      L09ED     BMI L09ED          ;(2/3)
09EF   C9 7F                CMP #$7F           ;(2)
09F1   D0 FE      L09F1     BNE L09F1          ;(2/3)
09F3   A9 69                LDA #$69           ;(2)
09F5   85 03                STA $03            ;(3)
09F7   A0 80                LDY #$80           ;(2)
09F9   A9 FF                LDA #$FF           ;(2)
09FB   99 00 10             STA L1000,Y        ;(5)
09FE   18                   CLC                ;(2)
09FF   A9 80                LDA #$80           ;(2)
0A01   79 00 10             ADC L1000,Y        ;(4/5)
0A04   90 FE      L0A04     BCC L0A04          ;(2/3)
0A06   50 FE      L0A06     BVC L0A06          ;(2/3)
0A08   F0 FE      L0A08     BEQ L0A08          ;(2/3)
0A0A   30 FE      L0A0A     BMI L0A0A          ;(2/3)
0A0C   C9 7F                CMP #$7F           ;(2)
0A0E   D0 FE      L0A0E     BNE L0A0E          ;(2/3)
0A10   A9 6A                LDA #$6A           ;(2)
0A12   85 03                STA $03            ;(3)
0A14   A9 10                LDA #$10           ;(2)
0A16   85 51                STA $51            ;(3)
0A18   85 21                STA L0021          ;(3)
0A1A   A9 AA                LDA #$AA           ;(2)
0A1C   85 50                STA $50            ;(3)
0A1E   85 20                STA $20            ;(3)
0A20   A9 FF                LDA #$FF           ;(2)
0A22   81 20                STA ($20,X)        ;(6)
0A24   18                   CLC                ;(2)
0A25   A9 80                LDA #$80           ;(2)
0A27   61 20                ADC ($20,X)        ;(6)
0A29   90 FE      L0A29     BCC L0A29          ;(2/3)
0A2B   50 FE      L0A2B     BVC L0A2B          ;(2/3)
0A2D   F0 FE      L0A2D     BEQ L0A2D          ;(2/3)
0A2F   30 FE      L0A2F     BMI L0A2F          ;(2/3)
0A31   C9 7F                CMP #$7F           ;(2)
0A33   D0 FE      L0A33     BNE L0A33          ;(2/3)
0A35   A9 6B                LDA #$6B           ;(2)
0A37   85 03                STA $03            ;(3)
0A39   A9 FF                LDA #$FF           ;(2)
0A3B   81 F0                STA ($F0,X)        ;(6)
0A3D   18                   CLC                ;(2)
0A3E   A9 80                LDA #$80           ;(2)
0A40   61 F0                ADC ($F0,X)        ;(6)
0A42   90 FE      L0A42     BCC L0A42          ;(2/3)
0A44   50 FE      L0A44     BVC L0A44          ;(2/3)
0A46   F0 FE      L0A46     BEQ L0A46          ;(2/3)
0A48   30 FE      L0A48     BMI L0A48          ;(2/3)
0A4A   C9 7F                CMP #$7F           ;(2)
0A4C   D0 FE      L0A4C     BNE L0A4C          ;(2/3)
0A4E   A9 6C                LDA #$6C           ;(2)
0A50   85 03                STA $03            ;(3)
0A52   A9 30                LDA #$30           ;(2)
0A54   85 10                STA $10            ;(3)
0A56   8D 00 10             STA L1000          ;(4)
0A59   38                   SEC                ;(2)
0A5A   E9 30                SBC #$30           ;(2)
0A5C   90 FE      L0A5C     BCC L0A5C          ;(2/3)
0A5E   70 FE      L0A5E     BVS L0A5E          ;(2/3)
0A60   D0 FE      L0A60     BNE L0A60          ;(2/3)
0A62   30 FE      L0A62     BMI L0A62          ;(2/3)
0A64   C9 00                CMP #$00           ;(2)
0A66   D0 FE      L0A66     BNE L0A66          ;(2/3)
0A68   A9 6D                LDA #$6D           ;(2)
0A6A   85 03                STA $03            ;(3)
0A6C   38                   SEC                ;(2)
0A6D   A9 30                LDA #$30           ;(2)
0A6F   E5 10                SBC $10            ;(3)
0A71   90 FE      L0A71     BCC L0A71          ;(2/3)
0A73   70 FE      L0A73     BVS L0A73          ;(2/3)
0A75   D0 FE      L0A75     BNE L0A75          ;(2/3)
0A77   30 FE      L0A77     BMI L0A77          ;(2/3)
0A79   C9 00                CMP #$00           ;(2)
0A7B   D0 FE      L0A7B     BNE L0A7B          ;(2/3)
0A7D   A9 6E                LDA #$6E           ;(2)
0A7F   85 03                STA $03            ;(3)
0A81   38                   SEC                ;(2)
0A82   A9 30                LDA #$30           ;(2)
0A84   ED 00 10             SBC L1000          ;(4)
0A87   90 FE      L0A87     BCC L0A87          ;(2/3)
0A89   70 FE      L0A89     BVS L0A89          ;(2/3)
0A8B   D0 FE      L0A8B     BNE L0A8B          ;(2/3)
0A8D   30 FE      L0A8D     BMI L0A8D          ;(2/3)
0A8F   C9 00                CMP #$00           ;(2)
0A91   D0 FE      L0A91     BNE L0A91          ;(2/3)
0A93   A9 6F                LDA #$6F           ;(2)
0A95   85 03                STA $03            ;(3)
0A97   A9 30                LDA #$30           ;(2)
0A99   AA                   TAX                ;(2)
0A9A   95 30                STA $30,X          ;(4)
0A9C   38                   SEC                ;(2)
0A9D   F5 30                SBC $30,X          ;(4)
0A9F   90 FE      L0A9F     BCC L0A9F          ;(2/3)
0AA1   70 FE      L0AA1     BVS L0AA1          ;(2/3)
0AA3   D0 FE      L0AA3     BNE L0AA3          ;(2/3)
0AA5   30 FE      L0AA5     BMI L0AA5          ;(2/3)
0AA7   C9 00                CMP #$00           ;(2)
0AA9   D0 FE      L0AA9     BNE L0AA9          ;(2/3)
0AAB   A9 70                LDA #$70           ;(2)
0AAD   85 03                STA $03            ;(3)
0AAF   A9 30                LDA #$30           ;(2)
0AB1   9D 00 10             STA L1000,X        ;(5)
0AB4   38                   SEC                ;(2)
0AB5   FD 00 10             SBC L1000,X        ;(4/5)
0AB8   90 FE      L0AB8     BCC L0AB8          ;(2/3)
0ABA   70 FE      L0ABA     BVS L0ABA          ;(2/3)
0ABC   D0 FE      L0ABC     BNE L0ABC          ;(2/3)
0ABE   30 FE      L0ABE     BMI L0ABE          ;(2/3)
0AC0   C9 00                CMP #$00           ;(2)
0AC2   D0 FE      L0AC2     BNE L0AC2          ;(2/3)
0AC4   A9 71                LDA #$71           ;(2)
0AC6   85 03                STA $03            ;(3)
0AC8   A9 30                LDA #$30           ;(2)
0ACA   A8                   TAY                ;(2)
0ACB   99 00 10             STA L1000,Y        ;(5)
0ACE   38                   SEC                ;(2)
0ACF   F9 00 10             SBC L1000,Y        ;(4/5)
0AD2   90 FE      L0AD2     BCC L0AD2          ;(2/3)
0AD4   70 FE      L0AD4     BVS L0AD4          ;(2/3)
0AD6   D0 FE      L0AD6     BNE L0AD6          ;(2/3)
0AD8   30 FE      L0AD8     BMI L0AD8          ;(2/3)
0ADA   C9 00                CMP #$00           ;(2)
0ADC   D0 FE      L0ADC     BNE L0ADC          ;(2/3)
0ADE   A9 72                LDA #$72           ;(2)
0AE0   85 03                STA $03            ;(3)
0AE2   A9 10                LDA #$10           ;(2)
0AE4   85 51                STA $51            ;(3)
0AE6   85 21                STA L0021          ;(3)
0AE8   A9 AA                LDA #$AA           ;(2)
0AEA   85 50                STA $50            ;(3)
0AEC   85 20                STA $20            ;(3)
0AEE   A2 30                LDX #$30           ;(2)
0AF0   8A                   TXA                ;(2)
0AF1   81 20                STA ($20,X)        ;(6)
0AF3   38                   SEC                ;(2)
0AF4   E1 20                SBC ($20,X)        ;(6)
0AF6   90 FE      L0AF6     BCC L0AF6          ;(2/3)
0AF8   70 FE      L0AF8     BVS L0AF8          ;(2/3)
0AFA   D0 FE      L0AFA     BNE L0AFA          ;(2/3)
0AFC   30 FE      L0AFC     BMI L0AFC          ;(2/3)
0AFE   C9 00                CMP #$00           ;(2)
0B00   D0 FE      L0B00     BNE L0B00          ;(2/3)
0B02   A9 73                LDA #$73           ;(2)
0B04   85 03                STA $03            ;(3)
0B06   A9 30                LDA #$30           ;(2)
0B08   81 F0                STA ($F0,X)        ;(6)
0B0A   38                   SEC                ;(2)
0B0B   E1 F0                SBC ($F0,X)        ;(6)
0B0D   90 FE      L0B0D     BCC L0B0D          ;(2/3)
0B0F   70 FE      L0B0F     BVS L0B0F          ;(2/3)
0B11   D0 FE      L0B11     BNE L0B11          ;(2/3)
0B13   30 FE      L0B13     BMI L0B13          ;(2/3)
0B15   C9 00                CMP #$00           ;(2)
0B17   D0 FE      L0B17     BNE L0B17          ;(2/3)
0B19   A9 74                LDA #$74           ;(2)
0B1B   85 03                STA $03            ;(3)
0B1D   A9 50                LDA #$50           ;(2)
0B1F   85 10                STA $10            ;(3)
0B21   8D 00 10             STA L1000          ;(4)
0B24   38                   SEC                ;(2)
0B25   A9 30                LDA #$30           ;(2)
0B27   E9 50                SBC #$50           ;(2)
0B29   B0 FE      L0B29     BCS L0B29          ;(2/3)
0B2B   70 FE      L0B2B     BVS L0B2B          ;(2/3)
0B2D   F0 FE      L0B2D     BEQ L0B2D          ;(2/3)
0B2F   10 FE      L0B2F     BPL L0B2F          ;(2/3)
0B31   C9 E0                CMP #$E0           ;(2)
0B33   D0 FE      L0B33     BNE L0B33          ;(2/3)
0B35   A9 75                LDA #$75           ;(2)
0B37   85 03                STA $03            ;(3)
0B39   38                   SEC                ;(2)
0B3A   A9 30                LDA #$30           ;(2)
0B3C   E5 10                SBC $10            ;(3)
0B3E   B0 FE      L0B3E     BCS L0B3E          ;(2/3)
0B40   70 FE      L0B40     BVS L0B40          ;(2/3)
0B42   F0 FE      L0B42     BEQ L0B42          ;(2/3)
0B44   10 FE      L0B44     BPL L0B44          ;(2/3)
0B46   C9 E0                CMP #$E0           ;(2)
0B48   D0 FE      L0B48     BNE L0B48          ;(2/3)
0B4A   A9 76                LDA #$76           ;(2)
0B4C   85 03                STA $03            ;(3)
0B4E   38                   SEC                ;(2)
0B4F   A9 30                LDA #$30           ;(2)
0B51   ED 00 10             SBC L1000          ;(4)
0B54   B0 FE      L0B54     BCS L0B54          ;(2/3)
0B56   70 FE      L0B56     BVS L0B56          ;(2/3)
0B58   F0 FE      L0B58     BEQ L0B58          ;(2/3)
0B5A   10 FE      L0B5A     BPL L0B5A          ;(2/3)
0B5C   C9 E0                CMP #$E0           ;(2)
0B5E   D0 FE      L0B5E     BNE L0B5E          ;(2/3)
0B60   A9 77                LDA #$77           ;(2)
0B62   85 03                STA $03            ;(3)
0B64   A2 30                LDX #$30           ;(2)
0B66   A9 50                LDA #$50           ;(2)
0B68   95 30                STA $30,X          ;(4)
0B6A   38                   SEC                ;(2)
0B6B   A9 30                LDA #$30           ;(2)
0B6D   F5 30                SBC $30,X          ;(4)
0B6F   B0 FE      L0B6F     BCS L0B6F          ;(2/3)
0B71   70 FE      L0B71     BVS L0B71          ;(2/3)
0B73   F0 FE      L0B73     BEQ L0B73          ;(2/3)
0B75   10 FE      L0B75     BPL L0B75          ;(2/3)
0B77   C9 E0                CMP #$E0           ;(2)
0B79   D0 FE      L0B79     BNE L0B79          ;(2/3)
0B7B   A9 78                LDA #$78           ;(2)
0B7D   85 03                STA $03            ;(3)
0B7F   A9 50                LDA #$50           ;(2)
0B81   9D 00 10             STA L1000,X        ;(5)
0B84   38                   SEC                ;(2)
0B85   A9 30                LDA #$30           ;(2)
0B87   FD 00 10             SBC L1000,X        ;(4/5)
0B8A   B0 FE      L0B8A     BCS L0B8A          ;(2/3)
0B8C   70 FE      L0B8C     BVS L0B8C          ;(2/3)
0B8E   F0 FE      L0B8E     BEQ L0B8E          ;(2/3)
0B90   10 FE      L0B90     BPL L0B90          ;(2/3)
0B92   C9 E0                CMP #$E0           ;(2)
0B94   D0 FE      L0B94     BNE L0B94          ;(2/3)
0B96   A9 79                LDA #$79           ;(2)
0B98   85 03                STA $03            ;(3)
0B9A   A0 30                LDY #$30           ;(2)
0B9C   A9 50                LDA #$50           ;(2)
0B9E   99 00 10             STA L1000,Y        ;(5)
0BA1   38                   SEC                ;(2)
0BA2   A9 30                LDA #$30           ;(2)
0BA4   F9 00 10             SBC L1000,Y        ;(4/5)
0BA7   B0 FE      L0BA7     BCS L0BA7          ;(2/3)
0BA9   70 FE      L0BA9     BVS L0BA9          ;(2/3)
0BAB   F0 FE      L0BAB     BEQ L0BAB          ;(2/3)
0BAD   10 FE      L0BAD     BPL L0BAD          ;(2/3)
0BAF   C9 E0                CMP #$E0           ;(2)
0BB1   D0 FE      L0BB1     BNE L0BB1          ;(2/3)
0BB3   A9 7A                LDA #$7A           ;(2)
0BB5   85 03                STA $03            ;(3)
0BB7   A9 10                LDA #$10           ;(2)
0BB9   85 51                STA $51            ;(3)
0BBB   85 21                STA L0021          ;(3)
0BBD   A9 AA                LDA #$AA           ;(2)
0BBF   85 50                STA $50            ;(3)
0BC1   85 20                STA $20            ;(3)
0BC3   A9 50                LDA #$50           ;(2)
0BC5   81 20                STA ($20,X)        ;(6)
0BC7   38                   SEC                ;(2)
0BC8   A9 30                LDA #$30           ;(2)
0BCA   E1 20                SBC ($20,X)        ;(6)
0BCC   B0 FE      L0BCC     BCS L0BCC          ;(2/3)
0BCE   70 FE      L0BCE     BVS L0BCE          ;(2/3)
0BD0   F0 FE      L0BD0     BEQ L0BD0          ;(2/3)
0BD2   10 FE      L0BD2     BPL L0BD2          ;(2/3)
0BD4   C9 E0                CMP #$E0           ;(2)
0BD6   D0 FE      L0BD6     BNE L0BD6          ;(2/3)
0BD8   A9 7B                LDA #$7B           ;(2)
0BDA   85 03                STA $03            ;(3)
0BDC   A9 50                LDA #$50           ;(2)
0BDE   81 F0                STA ($F0,X)        ;(6)
0BE0   38                   SEC                ;(2)
0BE1   A9 30                LDA #$30           ;(2)
0BE3   E1 F0                SBC ($F0,X)        ;(6)
0BE5   B0 FE      L0BE5     BCS L0BE5          ;(2/3)
0BE7   70 FE      L0BE7     BVS L0BE7          ;(2/3)
0BE9   F0 FE      L0BE9     BEQ L0BE9          ;(2/3)
0BEB   10 FE      L0BEB     BPL L0BEB          ;(2/3)
0BED   C9 E0                CMP #$E0           ;(2)
0BEF   D0 FE      L0BEF     BNE L0BEF          ;(2/3)
0BF1   A9 7C                LDA #$7C           ;(2)
0BF3   85 03                STA $03            ;(3)
0BF5   A9 01                LDA #$01           ;(2)
0BF7   85 10                STA $10            ;(3)
0BF9   8D 00 10             STA L1000          ;(4)
0BFC   38                   SEC                ;(2)
0BFD   A9 80                LDA #$80           ;(2)
0BFF   E9 01                SBC #$01           ;(2)
0C01   90 FE      L0C01     BCC L0C01          ;(2/3)
0C03   50 FE      L0C03     BVC L0C03          ;(2/3)
0C05   F0 FE      L0C05     BEQ L0C05          ;(2/3)
0C07   30 FE      L0C07     BMI L0C07          ;(2/3)
0C09   C9 7F                CMP #$7F           ;(2)
0C0B   D0 FE      L0C0B     BNE L0C0B          ;(2/3)
0C0D   A9 7D                LDA #$7D           ;(2)
0C0F   85 03                STA $03            ;(3)
0C11   38                   SEC                ;(2)
0C12   A9 80                LDA #$80           ;(2)
0C14   E5 10                SBC $10            ;(3)
0C16   90 FE      L0C16     BCC L0C16          ;(2/3)
0C18   50 FE      L0C18     BVC L0C18          ;(2/3)
0C1A   F0 FE      L0C1A     BEQ L0C1A          ;(2/3)
0C1C   30 FE      L0C1C     BMI L0C1C          ;(2/3)
0C1E   C9 7F                CMP #$7F           ;(2)
0C20   D0 FE      L0C20     BNE L0C20          ;(2/3)
0C22   A9 7E                LDA #$7E           ;(2)
0C24   85 03                STA $03            ;(3)
0C26   38                   SEC                ;(2)
0C27   A9 80                LDA #$80           ;(2)
0C29   ED 00 10             SBC L1000          ;(4)
0C2C   90 FE      L0C2C     BCC L0C2C          ;(2/3)
0C2E   50 FE      L0C2E     BVC L0C2E          ;(2/3)
0C30   F0 FE      L0C30     BEQ L0C30          ;(2/3)
0C32   30 FE      L0C32     BMI L0C32          ;(2/3)
0C34   C9 7F                CMP #$7F           ;(2)
0C36   D0 FE      L0C36     BNE L0C36          ;(2/3)
0C38   A9 7F                LDA #$7F           ;(2)
0C3A   85 03                STA $03            ;(3)
0C3C   A2 30                LDX #$30           ;(2)
0C3E   A9 01                LDA #$01           ;(2)
0C40   95 30                STA $30,X          ;(4)
0C42   38                   SEC                ;(2)
0C43   A9 80                LDA #$80           ;(2)
0C45   F5 30                SBC $30,X          ;(4)
0C47   90 FE      L0C47     BCC L0C47          ;(2/3)
0C49   50 FE      L0C49     BVC L0C49          ;(2/3)
0C4B   F0 FE      L0C4B     BEQ L0C4B          ;(2/3)
0C4D   30 FE      L0C4D     BMI L0C4D          ;(2/3)
0C4F   C9 7F                CMP #$7F           ;(2)
0C51   D0 FE      L0C51     BNE L0C51          ;(2/3)
0C53   A9 80                LDA #$80           ;(2)
0C55   85 03                STA $03            ;(3)
0C57   A9 01                LDA #$01           ;(2)
0C59   9D 00 10             STA L1000,X        ;(5)
0C5C   38                   SEC                ;(2)
0C5D   A9 80                LDA #$80           ;(2)
0C5F   FD 00 10             SBC L1000,X        ;(4/5)
0C62   90 FE      L0C62     BCC L0C62          ;(2/3)
0C64   50 FE      L0C64     BVC L0C64          ;(2/3)
0C66   F0 FE      L0C66     BEQ L0C66          ;(2/3)
0C68   30 FE      L0C68     BMI L0C68          ;(2/3)
0C6A   C9 7F                CMP #$7F           ;(2)
0C6C   D0 FE      L0C6C     BNE L0C6C          ;(2/3)
0C6E   A9 81                LDA #$81           ;(2)
0C70   85 03                STA $03            ;(3)
0C72   A0 30                LDY #$30           ;(2)
0C74   A9 01                LDA #$01           ;(2)
0C76   99 00 10             STA L1000,Y        ;(5)
0C79   38                   SEC                ;(2)
0C7A   A9 80                LDA #$80           ;(2)
0C7C   F9 00 10             SBC L1000,Y        ;(4/5)
0C7F   90 FE      L0C7F     BCC L0C7F          ;(2/3)
0C81   50 FE      L0C81     BVC L0C81          ;(2/3)
0C83   F0 FE      L0C83     BEQ L0C83          ;(2/3)
0C85   30 FE      L0C85     BMI L0C85          ;(2/3)
0C87   C9 7F                CMP #$7F           ;(2)
0C89   D0 FE      L0C89     BNE L0C89          ;(2/3)
0C8B   A9 82                LDA #$82           ;(2)
0C8D   85 03                STA $03            ;(3)
0C8F   A9 10                LDA #$10           ;(2)
0C91   85 51                STA $51            ;(3)
0C93   85 21                STA L0021          ;(3)
0C95   A9 AA                LDA #$AA           ;(2)
0C97   85 50                STA $50            ;(3)
0C99   85 20                STA $20            ;(3)
0C9B   A9 01                LDA #$01           ;(2)
0C9D   81 20                STA ($20,X)        ;(6)
0C9F   38                   SEC                ;(2)
0CA0   A9 80                LDA #$80           ;(2)
0CA2   E1 20                SBC ($20,X)        ;(6)
0CA4   90 FE      L0CA4     BCC L0CA4          ;(2/3)
0CA6   50 FE      L0CA6     BVC L0CA6          ;(2/3)
0CA8   F0 FE      L0CA8     BEQ L0CA8          ;(2/3)
0CAA   30 FE      L0CAA     BMI L0CAA          ;(2/3)
0CAC   C9 7F                CMP #$7F           ;(2)
0CAE   D0 FE      L0CAE     BNE L0CAE          ;(2/3)
0CB0   A9 83                LDA #$83           ;(2)
0CB2   85 03                STA $03            ;(3)
0CB4   A9 01                LDA #$01           ;(2)
0CB6   81 F0                STA ($F0,X)        ;(6)
0CB8   38                   SEC                ;(2)
0CB9   A9 80                LDA #$80           ;(2)
0CBB   E1 F0                SBC ($F0,X)        ;(6)
0CBD   90 FE      L0CBD     BCC L0CBD          ;(2/3)
0CBF   50 FE      L0CBF     BVC L0CBF          ;(2/3)
0CC1   F0 FE      L0CC1     BEQ L0CC1          ;(2/3)
0CC3   30 FE      L0CC3     BMI L0CC3          ;(2/3)
0CC5   C9 7F                CMP #$7F           ;(2)
0CC7   D0 FE      L0CC7     BNE L0CC7          ;(2/3)
0CC9   A9 84                LDA #$84           ;(2)
0CCB   85 03                STA $03            ;(3)
0CCD   A9 E0                LDA #$E0           ;(2)
0CCF   85 10                STA $10            ;(3)
0CD1   8D 00 10             STA L1000          ;(4)
0CD4   38                   SEC                ;(2)
0CD5   A9 70                LDA #$70           ;(2)
0CD7   E9 E0                SBC #$E0           ;(2)
0CD9   B0 FE      L0CD9     BCS L0CD9          ;(2/3)
0CDB   50 FE      L0CDB     BVC L0CDB          ;(2/3)
0CDD   F0 FE      L0CDD     BEQ L0CDD          ;(2/3)
0CDF   10 FE      L0CDF     BPL L0CDF          ;(2/3)
0CE1   C9 90                CMP #$90           ;(2)
0CE3   D0 FE      L0CE3     BNE L0CE3          ;(2/3)
0CE5   A9 85                LDA #$85           ;(2)
0CE7   85 03                STA $03            ;(3)
0CE9   38                   SEC                ;(2)
0CEA   A9 70                LDA #$70           ;(2)
0CEC   E5 10                SBC $10            ;(3)
0CEE   B0 FE      L0CEE     BCS L0CEE          ;(2/3)
0CF0   50 FE      L0CF0     BVC L0CF0          ;(2/3)
0CF2   F0 FE      L0CF2     BEQ L0CF2          ;(2/3)
0CF4   10 FE      L0CF4     BPL L0CF4          ;(2/3)
0CF6   C9 90                CMP #$90           ;(2)
0CF8   D0 FE      L0CF8     BNE L0CF8          ;(2/3)
0CFA   A9 86                LDA #$86           ;(2)
0CFC   85 03                STA $03            ;(3)
0CFE   38                   SEC                ;(2)
0CFF   A9 70                LDA #$70           ;(2)
0D01   ED 00 10             SBC L1000          ;(4)
0D04   B0 FE      L0D04     BCS L0D04          ;(2/3)
0D06   50 FE      L0D06     BVC L0D06          ;(2/3)
0D08   F0 FE      L0D08     BEQ L0D08          ;(2/3)
0D0A   10 FE      L0D0A     BPL L0D0A          ;(2/3)
0D0C   C9 90                CMP #$90           ;(2)
0D0E   D0 FE      L0D0E     BNE L0D0E          ;(2/3)
0D10   A9 87                LDA #$87           ;(2)
0D12   85 03                STA $03            ;(3)
0D14   A2 70                LDX #$70           ;(2)
0D16   A9 E0                LDA #$E0           ;(2)
0D18   95 30                STA $30,X          ;(4)
0D1A   38                   SEC                ;(2)
0D1B   A9 70                LDA #$70           ;(2)
0D1D   F5 30                SBC $30,X          ;(4)
0D1F   B0 FE      L0D1F     BCS L0D1F          ;(2/3)
0D21   50 FE      L0D21     BVC L0D21          ;(2/3)
0D23   F0 FE      L0D23     BEQ L0D23          ;(2/3)
0D25   10 FE      L0D25     BPL L0D25          ;(2/3)
0D27   C9 90                CMP #$90           ;(2)
0D29   D0 FE      L0D29     BNE L0D29          ;(2/3)
0D2B   A9 88                LDA #$88           ;(2)
0D2D   85 03                STA $03            ;(3)
0D2F   A9 E0                LDA #$E0           ;(2)
0D31   9D 00 10             STA L1000,X        ;(5)
0D34   38                   SEC                ;(2)
0D35   A9 70                LDA #$70           ;(2)
0D37   FD 00 10             SBC L1000,X        ;(4/5)
0D3A   B0 FE      L0D3A     BCS L0D3A          ;(2/3)
0D3C   50 FE      L0D3C     BVC L0D3C          ;(2/3)
0D3E   F0 FE      L0D3E     BEQ L0D3E          ;(2/3)
0D40   10 FE      L0D40     BPL L0D40          ;(2/3)
0D42   C9 90                CMP #$90           ;(2)
0D44   D0 FE      L0D44     BNE L0D44          ;(2/3)
0D46   A9 89                LDA #$89           ;(2)
0D48   85 03                STA $03            ;(3)
0D4A   A0 70                LDY #$70           ;(2)
0D4C   A9 E0                LDA #$E0           ;(2)
0D4E   99 00 10             STA L1000,Y        ;(5)
0D51   38                   SEC                ;(2)
0D52   A9 70                LDA #$70           ;(2)
0D54   F9 00 10             SBC L1000,Y        ;(4/5)
0D57   B0 FE      L0D57     BCS L0D57          ;(2/3)
0D59   50 FE      L0D59     BVC L0D59          ;(2/3)
0D5B   F0 FE      L0D5B     BEQ L0D5B          ;(2/3)
0D5D   10 FE      L0D5D     BPL L0D5D          ;(2/3)
0D5F   C9 90                CMP #$90           ;(2)
0D61   D0 FE      L0D61     BNE L0D61          ;(2/3)
0D63   A9 8A                LDA #$8A           ;(2)
0D65   85 03                STA $03            ;(3)
0D67   A9 10                LDA #$10           ;(2)
0D69   85 51                STA $51            ;(3)
0D6B   85 21                STA L0021          ;(3)
0D6D   A9 AA                LDA #$AA           ;(2)
0D6F   85 50                STA $50            ;(3)
0D71   85 20                STA $20            ;(3)
0D73   A9 E0                LDA #$E0           ;(2)
0D75   81 20                STA ($20,X)        ;(6)
0D77   38                   SEC                ;(2)
0D78   A9 70                LDA #$70           ;(2)
0D7A   E1 20                SBC ($20,X)        ;(6)
0D7C   B0 FE      L0D7C     BCS L0D7C          ;(2/3)
0D7E   50 FE      L0D7E     BVC L0D7E          ;(2/3)
0D80   F0 FE      L0D80     BEQ L0D80          ;(2/3)
0D82   10 FE      L0D82     BPL L0D82          ;(2/3)
0D84   C9 90                CMP #$90           ;(2)
0D86   D0 FE      L0D86     BNE L0D86          ;(2/3)
0D88   A9 8B                LDA #$8B           ;(2)
0D8A   85 03                STA $03            ;(3)
0D8C   A9 E0                LDA #$E0           ;(2)
0D8E   81 F0                STA ($F0,X)        ;(6)
0D90   38                   SEC                ;(2)
0D91   A9 70                LDA #$70           ;(2)
0D93   E1 F0                SBC ($F0,X)        ;(6)
0D95   B0 FE      L0D95     BCS L0D95          ;(2/3)
0D97   50 FE      L0D97     BVC L0D97          ;(2/3)
0D99   F0 FE      L0D99     BEQ L0D99          ;(2/3)
0D9B   10 FE      L0D9B     BPL L0D9B          ;(2/3)
0D9D   C9 90                CMP #$90           ;(2)
0D9F   D0 FE      L0D9F     BNE L0D9F          ;(2/3)
0DA1   A9 8C                LDA #$8C           ;(2)
0DA3   85 03                STA $03            ;(3)
0DA5   38                   SEC                ;(2)
0DA6   A9 01                LDA #$01           ;(2)
0DA8   69 04                ADC #$04           ;(2)
0DAA   B0 FE      L0DAA     BCS L0DAA          ;(2/3)
0DAC   C9 06                CMP #$06           ;(2)
0DAE   D0 FE      L0DAE     BNE L0DAE          ;(2/3)
0DB0   A9 8D                LDA #$8D           ;(2)
0DB2   85 03                STA $03            ;(3)
0DB4   38                   SEC                ;(2)
0DB5   A9 7F                LDA #$7F           ;(2)
0DB7   69 80                ADC #$80           ;(2)
0DB9   D0 FE      L0DB9     BNE L0DB9          ;(2/3)
0DBB   90 F1                BCC L0DAE          ;(2/3)
0DBD   A9 8E                LDA #$8E           ;(2)
0DBF   85 03                STA $03            ;(3)
0DC1   18                   CLC                ;(2)
0DC2   A9 06                LDA #$06           ;(2)
0DC4   E9 04                SBC #$04           ;(2)
0DC6   90 FE      L0DC6     BCC L0DC6          ;(2/3)
0DC8   C9 01                CMP #$01           ;(2)
0DCA   D0 FE      L0DCA     BNE L0DCA          ;(2/3)
0DCC   A9 8F                LDA #$8F           ;(2)
0DCE   85 03                STA $03            ;(3)
0DD0   38                   SEC                ;(2)
0DD1   A9 7F                LDA #$7F           ;(2)
0DD3   69 7F                ADC #$7F           ;(2)
0DD5   B0 FE      L0DD5     BCS L0DD5          ;(2/3)
0DD7   C9 FF                CMP #$FF           ;(2)
0DD9   D0 FE      L0DD9     BNE L0DD9          ;(2/3)
0DDB   A9 9F                LDA #$9F           ;(2)
0DDD   85 03                STA $03            ;(3)
0DDF   38                   SEC                ;(2)
0DE0   A9 7F                LDA #$7F           ;(2)
0DE2   69 80                ADC #$80           ;(2)
0DE4   90 EF                BCC L0DD5          ;(2/3)
0DE6   D0 FE      L0DE6     BNE L0DE6          ;(2/3)
0DE8   A9 A0                LDA #$A0           ;(2)
0DEA   85 03                STA $03            ;(3)
0DEC   A2 05                LDX #$05           ;(2)
0DEE   A0 09                LDY #$09           ;(2)
0DF0   A9 10                LDA #$10           ;(2)
0DF2   85 15                STA $15            ;(3)
0DF4   85 16                STA $16            ;(3)
0DF6   A9 00                LDA #$00           ;(2)
0DF8   85 14                STA $14            ;(3)
0DFA   8D 10 10             STA $1010          ;(4)
0DFD   8D 09 10             STA $1009          ;(4)
0E00   A9 AA                LDA #$AA           ;(2)
0E02   81 10                STA ($10,X)        ;(6)
0E04   91 14                STA ($14),Y        ;(6)
0E06   CD 10 10             CMP $1010          ;(4)
0E09   D0 FE      L0E09     BNE L0E09          ;(2/3)
0E0B   CD 09 10             CMP $1009          ;(4)
0E0E   D0 FE      L0E0E     BNE L0E0E          ;(2/3)
0E10   A9 A1                LDA #$A1           ;(2)
0E12   85 03                STA $03            ;(3)
0E14   A9 00                LDA #$00           ;(2)
0E16   85 10                STA $10            ;(3)
0E18   8D 00 10             STA L1000          ;(4)
0E1B   95 10                STA $10,X          ;(4)
0E1D   9D 00 10             STA L1000,X        ;(5)
0E20   99 00 10             STA L1000,Y        ;(5)
0E23   81 10                STA ($10,X)        ;(6)
0E25   91 14                STA ($14),Y        ;(6)
0E27   A9 FF                LDA #$FF           ;(2)
0E29   29 00                AND #$00           ;(2)
0E2B   D0 FE      L0E2B     BNE L0E2B          ;(2/3)
0E2D   30 FE      L0E2D     BMI L0E2D          ;(2/3)
0E2F   A9 A2                LDA #$A2           ;(2)
0E31   85 03                STA $03            ;(3)
0E33   A9 FF                LDA #$FF           ;(2)
0E35   25 10                AND $10            ;(3)
0E37   D0 FE      L0E37     BNE L0E37          ;(2/3)
0E39   30 FE      L0E39     BMI L0E39          ;(2/3)
0E3B   A9 A3                LDA #$A3           ;(2)
0E3D   85 03                STA $03            ;(3)
0E3F   A9 FF                LDA #$FF           ;(2)
0E41   2D 00 10             AND L1000          ;(4)
0E44   D0 FE      L0E44     BNE L0E44          ;(2/3)
0E46   30 FE      L0E46     BMI L0E46          ;(2/3)
0E48   A9 A4                LDA #$A4           ;(2)
0E4A   85 03                STA $03            ;(3)
0E4C   A9 FF                LDA #$FF           ;(2)
0E4E   35 10                AND $10,X          ;(4)
0E50   D0 FE      L0E50     BNE L0E50          ;(2/3)
0E52   30 FE      L0E52     BMI L0E52          ;(2/3)
0E54   A9 A5                LDA #$A5           ;(2)
0E56   85 03                STA $03            ;(3)
0E58   A9 FF                LDA #$FF           ;(2)
0E5A   3D 00 10             AND L1000,X        ;(4/5)
0E5D   D0 FE      L0E5D     BNE L0E5D          ;(2/3)
0E5F   30 FE      L0E5F     BMI L0E5F          ;(2/3)
0E61   A9 A6                LDA #$A6           ;(2)
0E63   85 03                STA $03            ;(3)
0E65   A9 FF                LDA #$FF           ;(2)
0E67   39 00 10             AND L1000,Y        ;(4/5)
0E6A   D0 FE      L0E6A     BNE L0E6A          ;(2/3)
0E6C   30 FE      L0E6C     BMI L0E6C          ;(2/3)
0E6E   A9 A7                LDA #$A7           ;(2)
0E70   85 03                STA $03            ;(3)
0E72   A9 FF                LDA #$FF           ;(2)
0E74   21 10                AND ($10,X)        ;(6)
0E76   D0 FE      L0E76     BNE L0E76          ;(2/3)
0E78   30 FE      L0E78     BMI L0E78          ;(2/3)
0E7A   A9 A8                LDA #$A8           ;(2)
0E7C   85 03                STA $03            ;(3)
0E7E   A9 FF                LDA #$FF           ;(2)
0E80   31 14                AND ($14),Y        ;(5/6)
0E82   D0 FE      L0E82     BNE L0E82          ;(2/3)
0E84   30 FE      L0E84     BMI L0E84          ;(2/3)
0E86   A9 A9                LDA #$A9           ;(2)
0E88   85 03                STA $03            ;(3)
0E8A   A9 FF                LDA #$FF           ;(2)
0E8C   85 10                STA $10            ;(3)
0E8E   8D 00 10             STA L1000          ;(4)
0E91   95 10                STA $10,X          ;(4)
0E93   9D 00 10             STA L1000,X        ;(5)
0E96   99 00 10             STA L1000,Y        ;(5)
0E99   81 10                STA ($10,X)        ;(6)
0E9B   91 14                STA ($14),Y        ;(6)
0E9D   A9 00                LDA #$00           ;(2)
0E9F   29 FF                AND #$FF           ;(2)
0EA1   D0 FE      L0EA1     BNE L0EA1          ;(2/3)
0EA3   30 FE      L0EA3     BMI L0EA3          ;(2/3)
0EA5   A9 AA                LDA #$AA           ;(2)
0EA7   85 03                STA $03            ;(3)
0EA9   A9 00                LDA #$00           ;(2)
0EAB   25 10                AND $10            ;(3)
0EAD   D0 FE      L0EAD     BNE L0EAD          ;(2/3)
0EAF   30 FE      L0EAF     BMI L0EAF          ;(2/3)
0EB1   A9 AB                LDA #$AB           ;(2)
0EB3   85 03                STA $03            ;(3)
0EB5   A9 00                LDA #$00           ;(2)
0EB7   2D 00 10             AND L1000          ;(4)
0EBA   D0 FE      L0EBA     BNE L0EBA          ;(2/3)
0EBC   30 FE      L0EBC     BMI L0EBC          ;(2/3)
0EBE   A9 AC                LDA #$AC           ;(2)
0EC0   85 03                STA $03            ;(3)
0EC2   A9 00                LDA #$00           ;(2)
0EC4   35 10                AND $10,X          ;(4)
0EC6   D0 FE      L0EC6     BNE L0EC6          ;(2/3)
0EC8   30 FE      L0EC8     BMI L0EC8          ;(2/3)
0ECA   A9 AD                LDA #$AD           ;(2)
0ECC   85 03                STA $03            ;(3)
0ECE   A9 00                LDA #$00           ;(2)
0ED0   3D 00 10             AND L1000,X        ;(4/5)
0ED3   D0 FE      L0ED3     BNE L0ED3          ;(2/3)
0ED5   30 FE      L0ED5     BMI L0ED5          ;(2/3)
0ED7   A9 AE                LDA #$AE           ;(2)
0ED9   85 03                STA $03            ;(3)
0EDB   A9 00                LDA #$00           ;(2)
0EDD   39 00 10             AND L1000,Y        ;(4/5)
0EE0   D0 FE      L0EE0     BNE L0EE0          ;(2/3)
0EE2   30 FE      L0EE2     BMI L0EE2          ;(2/3)
0EE4   A9 AF                LDA #$AF           ;(2)
0EE6   85 03                STA $03            ;(3)
0EE8   A9 00                LDA #$00           ;(2)
0EEA   21 10                AND ($10,X)        ;(6)
0EEC   D0 FE      L0EEC     BNE L0EEC          ;(2/3)
0EEE   30 FE      L0EEE     BMI L0EEE          ;(2/3)
0EF0   A9 B0                LDA #$B0           ;(2)
0EF2   85 03                STA $03            ;(3)
0EF4   A9 00                LDA #$00           ;(2)
0EF6   31 14                AND ($14),Y        ;(5/6)
0EF8   D0 FE      L0EF8     BNE L0EF8          ;(2/3)
0EFA   30 FE      L0EFA     BMI L0EFA          ;(2/3)
0EFC   A9 B1                LDA #$B1           ;(2)
0EFE   85 03                STA $03            ;(3)
0F00   A9 55                LDA #$55           ;(2)
0F02   85 10                STA $10            ;(3)
0F04   8D 00 10             STA L1000          ;(4)
0F07   95 10                STA $10,X          ;(4)
0F09   9D 00 10             STA L1000,X        ;(5)
0F0C   99 00 10             STA L1000,Y        ;(5)
0F0F   81 10                STA ($10,X)        ;(6)
0F11   91 14                STA ($14),Y        ;(6)
0F13   A9 AA                LDA #$AA           ;(2)
0F15   29 55                AND #$55           ;(2)
0F17   D0 FE      L0F17     BNE L0F17          ;(2/3)
0F19   30 FE      L0F19     BMI L0F19          ;(2/3)
0F1B   A9 B2                LDA #$B2           ;(2)
0F1D   85 03                STA $03            ;(3)
0F1F   A9 AA                LDA #$AA           ;(2)
0F21   25 10                AND $10            ;(3)
0F23   D0 FE      L0F23     BNE L0F23          ;(2/3)
0F25   30 FE      L0F25     BMI L0F25          ;(2/3)
0F27   A9 B3                LDA #$B3           ;(2)
0F29   85 03                STA $03            ;(3)
0F2B   A9 AA                LDA #$AA           ;(2)
0F2D   2D 00 10             AND L1000          ;(4)
0F30   D0 FE      L0F30     BNE L0F30          ;(2/3)
0F32   30 FE      L0F32     BMI L0F32          ;(2/3)
0F34   A9 B4                LDA #$B4           ;(2)
0F36   85 03                STA $03            ;(3)
0F38   A9 AA                LDA #$AA           ;(2)
0F3A   35 10                AND $10,X          ;(4)
0F3C   D0 FE      L0F3C     BNE L0F3C          ;(2/3)
0F3E   30 FE      L0F3E     BMI L0F3E          ;(2/3)
0F40   A9 B5                LDA #$B5           ;(2)
0F42   85 03                STA $03            ;(3)
0F44   A9 AA                LDA #$AA           ;(2)
0F46   3D 00 10             AND L1000,X        ;(4/5)
0F49   D0 FE      L0F49     BNE L0F49          ;(2/3)
0F4B   30 FE      L0F4B     BMI L0F4B          ;(2/3)
0F4D   A9 B6                LDA #$B6           ;(2)
0F4F   85 03                STA $03            ;(3)
0F51   A9 AA                LDA #$AA           ;(2)
0F53   39 00 10             AND L1000,Y        ;(4/5)
0F56   D0 FE      L0F56     BNE L0F56          ;(2/3)
0F58   30 FE      L0F58     BMI L0F58          ;(2/3)
0F5A   A9 B7                LDA #$B7           ;(2)
0F5C   85 03                STA $03            ;(3)
0F5E   A9 AA                LDA #$AA           ;(2)
0F60   21 10                AND ($10,X)        ;(6)
0F62   D0 FE      L0F62     BNE L0F62          ;(2/3)
0F64   30 FE      L0F64     BMI L0F64          ;(2/3)
0F66   A9 B8                LDA #$B8           ;(2)
0F68   85 03                STA $03            ;(3)
0F6A   A9 AA                LDA #$AA           ;(2)
0F6C   31 14                AND ($14),Y        ;(5/6)
0F6E   D0 FE      L0F6E     BNE L0F6E          ;(2/3)
0F70   30 FE      L0F70     BMI L0F70          ;(2/3)
0F72   A9 B9                LDA #$B9           ;(2)
0F74   85 03                STA $03            ;(3)
0F76   A9 FF                LDA #$FF           ;(2)
0F78   85 10                STA $10            ;(3)
0F7A   8D 00 10             STA L1000          ;(4)
0F7D   95 10                STA $10,X          ;(4)
0F7F   9D 00 10             STA L1000,X        ;(5)
0F82   99 00 10             STA L1000,Y        ;(5)
0F85   81 10                STA ($10,X)        ;(6)
0F87   91 14                STA ($14),Y        ;(6)
0F89   A9 FF                LDA #$FF           ;(2)
0F8B   29 FF                AND #$FF           ;(2)
0F8D   10 FE      L0F8D     BPL L0F8D          ;(2/3)
0F8F   C9 FF                CMP #$FF           ;(2)
0F91   D0 FE      L0F91     BNE L0F91          ;(2/3)
0F93   A9 BA                LDA #$BA           ;(2)
0F95   85 03                STA $03            ;(3)
0F97   A9 FF                LDA #$FF           ;(2)
0F99   25 10                AND $10            ;(3)
0F9B   10 FE      L0F9B     BPL L0F9B          ;(2/3)
0F9D   C9 FF                CMP #$FF           ;(2)
0F9F   D0 FE      L0F9F     BNE L0F9F          ;(2/3)
0FA1   A9 BB                LDA #$BB           ;(2)
0FA3   85 03                STA $03            ;(3)
0FA5   A9 FF                LDA #$FF           ;(2)
0FA7   2D 00 10             AND L1000          ;(4)
0FAA   10 FE      L0FAA     BPL L0FAA          ;(2/3)
0FAC   C9 FF                CMP #$FF           ;(2)
0FAE   D0 FE      L0FAE     BNE L0FAE          ;(2/3)
0FB0   A9 BC                LDA #$BC           ;(2)
0FB2   85 03                STA $03            ;(3)
0FB4   A9 FF                LDA #$FF           ;(2)
0FB6   35 10                AND $10,X          ;(4)
0FB8   10 FE      L0FB8     BPL L0FB8          ;(2/3)
0FBA   C9 FF                CMP #$FF           ;(2)
0FBC   D0 FE      L0FBC     BNE L0FBC          ;(2/3)
0FBE   A9 BD                LDA #$BD           ;(2)
0FC0   85 03                STA $03            ;(3)
0FC2   A9 FF                LDA #$FF           ;(2)
0FC4   3D 00 10             AND L1000,X        ;(4/5)
0FC7   10 FE      L0FC7     BPL L0FC7          ;(2/3)
0FC9   C9 FF                CMP #$FF           ;(2)
0FCB   D0 FE      L0FCB     BNE L0FCB          ;(2/3)
0FCD   A9 BE                LDA #$BE           ;(2)
0FCF   85 03                STA $03            ;(3)
0FD1   A9 FF                LDA #$FF           ;(2)
0FD3   39 00 10             AND L1000,Y        ;(4/5)
0FD6   10 FE      L0FD6     BPL L0FD6          ;(2/3)
0FD8   C9 FF                CMP #$FF           ;(2)
0FDA   D0 FE      L0FDA     BNE L0FDA          ;(2/3)
0FDC   A9 BF                LDA #$BF           ;(2)
0FDE   85 03                STA $03            ;(3)
0FE0   A9 FF                LDA #$FF           ;(2)
0FE2   21 10                AND ($10,X)        ;(6)
0FE4   10 FE      L0FE4     BPL L0FE4          ;(2/3)
0FE6   C9 FF                CMP #$FF           ;(2)
0FE8   D0 FE      L0FE8     BNE L0FE8          ;(2/3)
0FEA   A9 C0                LDA #$C0           ;(2)
0FEC   85 03                STA $03            ;(3)
0FEE   A9 FF                LDA #$FF           ;(2)
0FF0   31 14                AND ($14),Y        ;(5/6)
0FF2   10 FE      L0FF2     BPL L0FF2          ;(2/3)
0FF4   C9 FF                CMP #$FF           ;(2)
0FF6   D0 FE      L0FF6     BNE L0FF6          ;(2/3)
0FF8   A9 C1                LDA #$C1           ;(2)
0FFA   85 03                STA $03            ;(3)
0FFC   A9 00                LDA #$00           ;(2)
0FFE   85 10                STA $10            ;(3)
1000   8D 00 10   L1000     STA L1000          ;(4)
1003   95 10                STA $10,X          ;(4)
1005   9D 00 10             STA L1000,X        ;(5)
1008   99 00 10             STA L1000,Y        ;(5)
100B   81 10                STA ($10,X)        ;(6)
100D   91 14                STA ($14),Y        ;(6)
100F   A9 FF                LDA #$FF           ;(2)
1011   09 00                ORA #$00           ;(2)
1013   10 FE      L1013     BPL L1013          ;(2/3)
1015   C9 FF                CMP #$FF           ;(2)
1017   D0 FE      L1017     BNE L1017          ;(2/3)
1019   A9 C2                LDA #$C2           ;(2)
101B   85 03                STA $03            ;(3)
101D   A9 FF                LDA #$FF           ;(2)
101F   05 10                ORA $10            ;(3)
1021   10 FE      L1021     BPL L1021          ;(2/3)
1023   C9 FF                CMP #$FF           ;(2)
1025   D0 FE      L1025     BNE L1025          ;(2/3)
1027   A9 C3                LDA #$C3           ;(2)
1029   85 03                STA $03            ;(3)
102B   A9 FF                LDA #$FF           ;(2)
102D   0D 00 10             ORA L1000          ;(4)
1030   10 FE      L1030     BPL L1030          ;(2/3)
1032   C9 FF                CMP #$FF           ;(2)
1034   D0 FE      L1034     BNE L1034          ;(2/3)
1036   A9 C4                LDA #$C4           ;(2)
1038   85 03                STA $03            ;(3)
103A   A9 FF                LDA #$FF           ;(2)
103C   15 10                ORA $10,X          ;(4)
103E   10 FE      L103E     BPL L103E          ;(2/3)
1040   C9 FF                CMP #$FF           ;(2)
1042   D0 FE      L1042     BNE L1042          ;(2/3)
1044   A9 C5                LDA #$C5           ;(2)
1046   85 03                STA $03            ;(3)
1048   A9 FF                LDA #$FF           ;(2)
104A   1D 00 10             ORA L1000,X        ;(4/5)
104D   10 FE      L104D     BPL L104D          ;(2/3)
104F   C9 FF                CMP #$FF           ;(2)
1051   D0 FE      L1051     BNE L1051          ;(2/3)
1053   A9 C6                LDA #$C6           ;(2)
1055   85 03                STA $03            ;(3)
1057   A9 FF                LDA #$FF           ;(2)
1059   19 00 10             ORA L1000,Y        ;(4/5)
105C   10 FE      L105C     BPL L105C          ;(2/3)
105E   C9 FF                CMP #$FF           ;(2)
1060   D0 FE      L1060     BNE L1060          ;(2/3)
1062   A9 C7                LDA #$C7           ;(2)
1064   85 03                STA $03            ;(3)
1066   A9 FF                LDA #$FF           ;(2)
1068   01 10                ORA ($10,X)        ;(6)
106A   10 FE      L106A     BPL L106A          ;(2/3)
106C   C9 FF                CMP #$FF           ;(2)
106E   D0 FE      L106E     BNE L106E          ;(2/3)
1070   A9 C8                LDA #$C8           ;(2)
1072   85 03                STA $03            ;(3)
1074   A9 FF                LDA #$FF           ;(2)
1076   11 14                ORA ($14),Y        ;(5/6)
1078   10 FE      L1078     BPL L1078          ;(2/3)
107A   C9 FF                CMP #$FF           ;(2)
107C   D0 FE      L107C     BNE L107C          ;(2/3)
107E   A9 C9                LDA #$C9           ;(2)
1080   85 03                STA $03            ;(3)
1082   A9 FF                LDA #$FF           ;(2)
1084   85 10                STA $10            ;(3)
1086   8D 00 10             STA L1000          ;(4)
1089   95 10                STA $10,X          ;(4)
108B   9D 00 10             STA L1000,X        ;(5)
108E   99 00 10             STA L1000,Y        ;(5)
1091   81 10                STA ($10,X)        ;(6)
1093   91 14                STA ($14),Y        ;(6)
1095   A9 00                LDA #$00           ;(2)
1097   09 FF                ORA #$FF           ;(2)
1099   10 FE      L1099     BPL L1099          ;(2/3)
109B   C9 FF                CMP #$FF           ;(2)
109D   D0 FE      L109D     BNE L109D          ;(2/3)
109F   A9 CA                LDA #$CA           ;(2)
10A1   85 03                STA $03            ;(3)
10A3   A9 00                LDA #$00           ;(2)
10A5   05 10                ORA $10            ;(3)
10A7   10 FE      L10A7     BPL L10A7          ;(2/3)
10A9   C9 FF                CMP #$FF           ;(2)
10AB   D0 FE      L10AB     BNE L10AB          ;(2/3)
10AD   A9 CB                LDA #$CB           ;(2)
10AF   85 03                STA $03            ;(3)
10B1   A9 00                LDA #$00           ;(2)
10B3   0D 00 10             ORA L1000          ;(4)
10B6   10 FE      L10B6     BPL L10B6          ;(2/3)
10B8   C9 FF                CMP #$FF           ;(2)
10BA   D0 FE      L10BA     BNE L10BA          ;(2/3)
10BC   A9 CC                LDA #$CC           ;(2)
10BE   85 03                STA $03            ;(3)
10C0   A9 00                LDA #$00           ;(2)
10C2   15 10                ORA $10,X          ;(4)
10C4   10 FE      L10C4     BPL L10C4          ;(2/3)
10C6   C9 FF                CMP #$FF           ;(2)
10C8   D0 FE      L10C8     BNE L10C8          ;(2/3)
10CA   A9 CD                LDA #$CD           ;(2)
10CC   85 03                STA $03            ;(3)
10CE   A9 00                LDA #$00           ;(2)
10D0   1D 00 10             ORA L1000,X        ;(4/5)
10D3   10 FE      L10D3     BPL L10D3          ;(2/3)
10D5   C9 FF                CMP #$FF           ;(2)
10D7   D0 FE      L10D7     BNE L10D7          ;(2/3)
10D9   A9 CE                LDA #$CE           ;(2)
10DB   85 03                STA $03            ;(3)
10DD   A9 00                LDA #$00           ;(2)
10DF   19 00 10             ORA L1000,Y        ;(4/5)
10E2   10 FE      L10E2     BPL L10E2          ;(2/3)
10E4   C9 FF                CMP #$FF           ;(2)
10E6   D0 FE      L10E6     BNE L10E6          ;(2/3)
10E8   A9 CF                LDA #$CF           ;(2)
10EA   85 03                STA $03            ;(3)
10EC   A9 00                LDA #$00           ;(2)
10EE   01 10                ORA ($10,X)        ;(6)
10F0   10 FE      L10F0     BPL L10F0          ;(2/3)
10F2   C9 FF                CMP #$FF           ;(2)
10F4   D0 FE      L10F4     BNE L10F4          ;(2/3)
10F6   A9 D0                LDA #$D0           ;(2)
10F8   85 03                STA $03            ;(3)
10FA   A9 00                LDA #$00           ;(2)
10FC   11 14                ORA ($14),Y        ;(5/6)
10FE   10 FE      L10FE     BPL L10FE          ;(2/3)
1100   C9 FF                CMP #$FF           ;(2)
1102   D0 FE      L1102     BNE L1102          ;(2/3)
1104   A9 D1                LDA #$D1           ;(2)
1106   85 03                STA $03            ;(3)
1108   A9 00                LDA #$00           ;(2)
110A   85 10                STA $10            ;(3)
110C   8D 00 10             STA L1000          ;(4)
110F   95 10                STA $10,X          ;(4)
1111   9D 00 10             STA L1000,X        ;(5)
1114   99 00 10             STA L1000,Y        ;(5)
1117   81 10                STA ($10,X)        ;(6)
1119   91 14                STA ($14),Y        ;(6)
111B   A9 00                LDA #$00           ;(2)
111D   09 00                ORA #$00           ;(2)
111F   30 FE      L111F     BMI L111F          ;(2/3)
1121   D0 FE      L1121     BNE L1121          ;(2/3)
1123   A9 CA                LDA #$CA           ;(2)
1125   85 03                STA $03            ;(3)
1127   A9 00                LDA #$00           ;(2)
1129   05 10                ORA $10            ;(3)
112B   30 FE      L112B     BMI L112B          ;(2/3)
112D   D0 FE      L112D     BNE L112D          ;(2/3)
112F   A9 CB                LDA #$CB           ;(2)
1131   85 03                STA $03            ;(3)
1133   A9 00                LDA #$00           ;(2)
1135   0D 00 10             ORA L1000          ;(4)
1138   30 FE      L1138     BMI L1138          ;(2/3)
113A   D0 FE      L113A     BNE L113A          ;(2/3)
113C   A9 CC                LDA #$CC           ;(2)
113E   85 03                STA $03            ;(3)
1140   A9 00                LDA #$00           ;(2)
1142   15 10                ORA $10,X          ;(4)
1144   30 FE      L1144     BMI L1144          ;(2/3)
1146   D0 FE      L1146     BNE L1146          ;(2/3)
1148   A9 CD                LDA #$CD           ;(2)
114A   85 03                STA $03            ;(3)
114C   A9 00                LDA #$00           ;(2)
114E   1D 00 10             ORA L1000,X        ;(4/5)
1151   30 FE      L1151     BMI L1151          ;(2/3)
1153   D0 FE      L1153     BNE L1153          ;(2/3)
1155   A9 CE                LDA #$CE           ;(2)
1157   85 03                STA $03            ;(3)
1159   A9 00                LDA #$00           ;(2)
115B   19 00 10             ORA L1000,Y        ;(4/5)
115E   30 FE      L115E     BMI L115E          ;(2/3)
1160   D0 FE      L1160     BNE L1160          ;(2/3)
1162   A9 CF                LDA #$CF           ;(2)
1164   85 03                STA $03            ;(3)
1166   A9 00                LDA #$00           ;(2)
1168   01 10                ORA ($10,X)        ;(6)
116A   30 FE      L116A     BMI L116A          ;(2/3)
116C   D0 FE      L116C     BNE L116C          ;(2/3)
116E   A9 D0                LDA #$D0           ;(2)
1170   85 03                STA $03            ;(3)
1172   A9 00                LDA #$00           ;(2)
1174   11 14                ORA ($14),Y        ;(5/6)
1176   30 FE      L1176     BMI L1176          ;(2/3)
1178   D0 FE      L1178     BNE L1178          ;(2/3)
117A   A9 D1                LDA #$D1           ;(2)
117C   85 03                STA $03            ;(3)
117E   A9 01                LDA #$01           ;(2)
1180   38                   SEC                ;(2)
1181   0A                   ASL A              ;(2)
1182   B0 FE      L1182     BCS L1182          ;(2/3)
1184   30 02                BMI L1188          ;(2/3)
1186   C9 02                CMP #$02           ;(2)
1188   D0 FE      L1188     BNE L1188          ;(2/3)
118A   38                   SEC                ;(2)
118B   0A                   ASL A              ;(2)
118C   B0 FE      L118C     BCS L118C          ;(2/3)
118E   30 FE      L118E     BMI L118E          ;(2/3)
1190   C9 04                CMP #$04           ;(2)
1192   D0 FE      L1192     BNE L1192          ;(2/3)
1194   38                   SEC                ;(2)
1195   0A                   ASL A              ;(2)
1196   B0 FE      L1196     BCS L1196          ;(2/3)
1198   30 FE      L1198     BMI L1198          ;(2/3)
119A   C9 08                CMP #$08           ;(2)
119C   D0 FE      L119C     BNE L119C          ;(2/3)
119E   38                   SEC                ;(2)
119F   0A                   ASL A              ;(2)
11A0   B0 FE      L11A0     BCS L11A0          ;(2/3)
11A2   30 FE      L11A2     BMI L11A2          ;(2/3)
11A4   C9 10                CMP #$10           ;(2)
11A6   D0 FE      L11A6     BNE L11A6          ;(2/3)
11A8   38                   SEC                ;(2)
11A9   0A                   ASL A              ;(2)
11AA   B0 FE      L11AA     BCS L11AA          ;(2/3)
11AC   30 FE      L11AC     BMI L11AC          ;(2/3)
11AE   C9 20                CMP #$20           ;(2)
11B0   D0 FE      L11B0     BNE L11B0          ;(2/3)
11B2   38                   SEC                ;(2)
11B3   0A                   ASL A              ;(2)
11B4   B0 FE      L11B4     BCS L11B4          ;(2/3)
11B6   30 FE      L11B6     BMI L11B6          ;(2/3)
11B8   C9 40                CMP #$40           ;(2)
11BA   D0 FE      L11BA     BNE L11BA          ;(2/3)
11BC   38                   SEC                ;(2)
11BD   0A                   ASL A              ;(2)
11BE   B0 FE      L11BE     BCS L11BE          ;(2/3)
11C0   10 FE      L11C0     BPL L11C0          ;(2/3)
11C2   C9 80                CMP #$80           ;(2)
11C4   D0 FE      L11C4     BNE L11C4          ;(2/3)
11C6   0A                   ASL A              ;(2)
11C7   90 FE      L11C7     BCC L11C7          ;(2/3)
11C9   30 FE      L11C9     BMI L11C9          ;(2/3)
11CB   D0 FE      L11CB     BNE L11CB          ;(2/3)
11CD   A9 55                LDA #$55           ;(2)
11CF   85 10                STA $10            ;(3)
11D1   8D 00 10             STA L1000          ;(4)
11D4   95 10                STA $10,X          ;(4)
11D6   9D 00 10             STA L1000,X        ;(5)
11D9   A9 D2                LDA #$D2           ;(2)
11DB   85 03                STA $03            ;(3)
11DD   06 10                ASL $10            ;(5)
11DF   A5 10                LDA $10            ;(3)
11E1   C9 AA                CMP #$AA           ;(2)
11E3   D0 FE      L11E3     BNE L11E3          ;(2/3)
11E5   A9 D3                LDA #$D3           ;(2)
11E7   85 03                STA $03            ;(3)
11E9   0E 00 10             ASL L1000          ;(6)
11EC   AD 00 10             LDA L1000          ;(4)
11EF   C9 AA                CMP #$AA           ;(2)
11F1   D0 FE      L11F1     BNE L11F1          ;(2/3)
11F3   A9 D4                LDA #$D4           ;(2)
11F5   85 03                STA $03            ;(3)
11F7   16 10                ASL $10,X          ;(6)
11F9   B5 10                LDA $10,X          ;(4)
11FB   C9 AA                CMP #$AA           ;(2)
11FD   D0 FE      L11FD     BNE L11FD          ;(2/3)
11FF   A9 D5                LDA #$D5           ;(2)
1201   85 03                STA $03            ;(3)
1203   1E 00 10             ASL L1000,X        ;(7)
1206   BD 00 10             LDA L1000,X        ;(4/5)
1209   C9 AA                CMP #$AA           ;(2)
120B   D0 FE      L120B     BNE L120B          ;(2/3)
120D   A9 D6                LDA #$D6           ;(2)
120F   85 03                STA $03            ;(3)
1211   A9 80                LDA #$80           ;(2)
1213   38                   SEC                ;(2)
1214   4A                   LSR A              ;(2)
1215   B0 FE      L1215     BCS L1215          ;(2/3)
1217   30 FE      L1217     BMI L1217          ;(2/3)
1219   C9 40                CMP #$40           ;(2)
121B   D0 FE      L121B     BNE L121B          ;(2/3)
121D   38                   SEC                ;(2)
121E   4A                   LSR A              ;(2)
121F   B0 FE      L121F     BCS L121F          ;(2/3)
1221   30 FE      L1221     BMI L1221          ;(2/3)
1223   C9 20                CMP #$20           ;(2)
1225   D0 FE      L1225     BNE L1225          ;(2/3)
1227   38                   SEC                ;(2)
1228   4A                   LSR A              ;(2)
1229   B0 FE      L1229     BCS L1229          ;(2/3)
122B   30 FE      L122B     BMI L122B          ;(2/3)
122D   C9 10                CMP #$10           ;(2)
122F   D0 FE      L122F     BNE L122F          ;(2/3)
1231   38                   SEC                ;(2)
1232   4A                   LSR A              ;(2)
1233   B0 FE      L1233     BCS L1233          ;(2/3)
1235   30 02                BMI L1239          ;(2/3)
1237   C9 08                CMP #$08           ;(2)
1239   D0 FE      L1239     BNE L1239          ;(2/3)
123B   38                   SEC                ;(2)
123C   4A                   LSR A              ;(2)
123D   B0 FE      L123D     BCS L123D          ;(2/3)
123F   30 FE      L123F     BMI L123F          ;(2/3)
1241   C9 04                CMP #$04           ;(2)
1243   D0 FE      L1243     BNE L1243          ;(2/3)
1245   38                   SEC                ;(2)
1246   4A                   LSR A              ;(2)
1247   B0 FE      L1247     BCS L1247          ;(2/3)
1249   30 FE      L1249     BMI L1249          ;(2/3)
124B   C9 02                CMP #$02           ;(2)
124D   D0 FE      L124D     BNE L124D          ;(2/3)
124F   38                   SEC                ;(2)
1250   4A                   LSR A              ;(2)
1251   B0 FE      L1251     BCS L1251          ;(2/3)
1253   30 02                BMI L1257          ;(2/3)
1255   C9 01                CMP #$01           ;(2)
1257   D0 FE      L1257     BNE L1257          ;(2/3)
1259   4A                   LSR A              ;(2)
125A   90 FE      L125A     BCC L125A          ;(2/3)
125C   30 FE      L125C     BMI L125C          ;(2/3)
125E   D0 FE      L125E     BNE L125E          ;(2/3)
1260   A9 AA                LDA #$AA           ;(2)
1262   85 10                STA $10            ;(3)
1264   8D 00 10             STA L1000          ;(4)
1267   95 10                STA $10,X          ;(4)
1269   9D 00 10             STA L1000,X        ;(5)
126C   A9 D7                LDA #$D7           ;(2)
126E   85 03                STA $03            ;(3)
1270   46 10                LSR $10            ;(5)
1272   A5 10                LDA $10            ;(3)
1274   C9 55                CMP #$55           ;(2)
1276   D0 FE      L1276     BNE L1276          ;(2/3)
1278   A9 D8                LDA #$D8           ;(2)
127A   85 03                STA $03            ;(3)
127C   4E 00 10             LSR L1000          ;(6)
127F   AD 00 10             LDA L1000          ;(4)
1282   C9 55                CMP #$55           ;(2)
1284   D0 FE      L1284     BNE L1284          ;(2/3)
1286   A9 D9                LDA #$D9           ;(2)
1288   85 03                STA $03            ;(3)
128A   56 10                LSR $10,X          ;(6)
128C   B5 10                LDA $10,X          ;(4)
128E   C9 55                CMP #$55           ;(2)
1290   D0 FE      L1290     BNE L1290          ;(2/3)
1292   A9 DA                LDA #$DA           ;(2)
1294   85 03                STA $03            ;(3)
1296   5E 00 10             LSR L1000,X        ;(7)
1299   BD 00 10             LDA L1000,X        ;(4/5)
129C   C9 55                CMP #$55           ;(2)
129E   D0 FE      L129E     BNE L129E          ;(2/3)
12A0   A9 D8                LDA #$D8           ;(2)
12A2   85 03                STA $03            ;(3)
12A4   A9 11                LDA #$11           ;(2)
12A6   18                   CLC                ;(2)
12A7   2A                   ROL A              ;(2)
12A8   B0 FE      L12A8     BCS L12A8          ;(2/3)
12AA   30 FE      L12AA     BMI L12AA          ;(2/3)
12AC   C9 22                CMP #$22           ;(2)
12AE   D0 FE      L12AE     BNE L12AE          ;(2/3)
12B0   38                   SEC                ;(2)
12B1   2A                   ROL A              ;(2)
12B2   B0 FE      L12B2     BCS L12B2          ;(2/3)
12B4   30 FE      L12B4     BMI L12B4          ;(2/3)
12B6   C9 45                CMP #$45           ;(2)
12B8   D0 FE      L12B8     BNE L12B8          ;(2/3)
12BA   18                   CLC                ;(2)
12BB   2A                   ROL A              ;(2)
12BC   B0 FE      L12BC     BCS L12BC          ;(2/3)
12BE   10 FE      L12BE     BPL L12BE          ;(2/3)
12C0   C9 8A                CMP #$8A           ;(2)
12C2   D0 FE      L12C2     BNE L12C2          ;(2/3)
12C4   18                   CLC                ;(2)
12C5   2A                   ROL A              ;(2)
12C6   90 FE      L12C6     BCC L12C6          ;(2/3)
12C8   30 FE      L12C8     BMI L12C8          ;(2/3)
12CA   C9 14                CMP #$14           ;(2)
12CC   D0 FE      L12CC     BNE L12CC          ;(2/3)
12CE   A9 55                LDA #$55           ;(2)
12D0   85 10                STA $10            ;(3)
12D2   8D 00 10             STA L1000          ;(4)
12D5   95 10                STA $10,X          ;(4)
12D7   9D 00 10             STA L1000,X        ;(5)
12DA   A9 D9                LDA #$D9           ;(2)
12DC   85 03                STA $03            ;(3)
12DE   38                   SEC                ;(2)
12DF   26 10                ROL $10            ;(5)
12E1   A5 10                LDA $10            ;(3)
12E3   C9 AB                CMP #$AB           ;(2)
12E5   D0 FE      L12E5     BNE L12E5          ;(2/3)
12E7   A9 DA                LDA #$DA           ;(2)
12E9   85 03                STA $03            ;(3)
12EB   38                   SEC                ;(2)
12EC   2E 00 10             ROL L1000          ;(6)
12EF   AD 00 10             LDA L1000          ;(4)
12F2   C9 AB                CMP #$AB           ;(2)
12F4   D0 FE      L12F4     BNE L12F4          ;(2/3)
12F6   A9 DB                LDA #$DB           ;(2)
12F8   85 03                STA $03            ;(3)
12FA   38                   SEC                ;(2)
12FB   36 10                ROL $10,X          ;(6)
12FD   B5 10                LDA $10,X          ;(4)
12FF   C9 AB                CMP #$AB           ;(2)
1301   D0 FE      L1301     BNE L1301          ;(2/3)
1303   A9 DC                LDA #$DC           ;(2)
1305   85 03                STA $03            ;(3)
1307   38                   SEC                ;(2)
1308   3E 00 10             ROL L1000,X        ;(7)
130B   BD 00 10             LDA L1000,X        ;(4/5)
130E   C9 AB                CMP #$AB           ;(2)
1310   D0 FE      L1310     BNE L1310          ;(2/3)
1312   A9 DD                LDA #$DD           ;(2)
1314   85 03                STA $03            ;(3)
1316   A9 88                LDA #$88           ;(2)
1318   18                   CLC                ;(2)
1319   6A                   ROR A              ;(2)
131A   B0 FE      L131A     BCS L131A          ;(2/3)
131C   30 FE      L131C     BMI L131C          ;(2/3)
131E   C9 44                CMP #$44           ;(2)
1320   D0 FE      L1320     BNE L1320          ;(2/3)
1322   38                   SEC                ;(2)
1323   6A                   ROR A              ;(2)
1324   B0 FE      L1324     BCS L1324          ;(2/3)
1326   10 FE      L1326     BPL L1326          ;(2/3)
1328   C9 A2                CMP #$A2           ;(2)
132A   D0 FE      L132A     BNE L132A          ;(2/3)
132C   18                   CLC                ;(2)
132D   6A                   ROR A              ;(2)
132E   B0 FE      L132E     BCS L132E          ;(2/3)
1330   30 FE      L1330     BMI L1330          ;(2/3)
1332   C9 51                CMP #$51           ;(2)
1334   D0 FE      L1334     BNE L1334          ;(2/3)
1336   18                   CLC                ;(2)
1337   6A                   ROR A              ;(2)
1338   90 FE      L1338     BCC L1338          ;(2/3)
133A   30 FE      L133A     BMI L133A          ;(2/3)
133C   C9 28                CMP #$28           ;(2)
133E   D0 FE      L133E     BNE L133E          ;(2/3)
1340   A9 AA                LDA #$AA           ;(2)
1342   85 10                STA $10            ;(3)
1344   8D 00 10             STA L1000          ;(4)
1347   95 10                STA $10,X          ;(4)
1349   9D 00 10             STA L1000,X        ;(5)
134C   A9 DE                LDA #$DE           ;(2)
134E   85 03                STA $03            ;(3)
1350   38                   SEC                ;(2)
1351   66 10                ROR $10            ;(5)
1353   A5 10                LDA $10            ;(3)
1355   C9 D5                CMP #$D5           ;(2)
1357   D0 FE      L1357     BNE L1357          ;(2/3)
1359   A9 DF                LDA #$DF           ;(2)
135B   85 03                STA $03            ;(3)
135D   38                   SEC                ;(2)
135E   6E 00 10             ROR L1000          ;(6)
1361   AD 00 10             LDA L1000          ;(4)
1364   C9 D5                CMP #$D5           ;(2)
1366   D0 FE      L1366     BNE L1366          ;(2/3)
1368   A9 E0                LDA #$E0           ;(2)
136A   85 03                STA $03            ;(3)
136C   38                   SEC                ;(2)
136D   76 10                ROR $10,X          ;(6)
136F   B5 10                LDA $10,X          ;(4)
1371   C9 D5                CMP #$D5           ;(2)
1373   D0 FE      L1373     BNE L1373          ;(2/3)
1375   A9 E1                LDA #$E1           ;(2)
1377   85 03                STA $03            ;(3)
1379   38                   SEC                ;(2)
137A   7E 00 10             ROR L1000,X        ;(7)
137D   BD 00 10             LDA L1000,X        ;(4/5)
1380   C9 D5                CMP #$D5           ;(2)
1382   D0 FE      L1382     BNE L1382          ;(2/3)
1384   A9 E1                LDA #$E1           ;(2)
1386   85 03                STA $03            ;(3)
1388   A9 00                LDA #$00           ;(2)
138A   85 10                STA $10            ;(3)
138C   8D 00 10             STA L1000          ;(4)
138F   A9 FF                LDA #$FF           ;(2)
1391   24 10                BIT $10            ;(3)
1393   D0 FE      L1393     BNE L1393          ;(2/3)
1395   30 FE      L1395     BMI L1395          ;(2/3)
1397   70 FE      L1397     BVS L1397          ;(2/3)
1399   A9 E2                LDA #$E2           ;(2)
139B   85 03                STA $03            ;(3)
139D   A9 FF                LDA #$FF           ;(2)
139F   2C 00 10             BIT L1000          ;(4)
13A2   D0 FE      L13A2     BNE L13A2          ;(2/3)
13A4   30 FE      L13A4     BMI L13A4          ;(2/3)
13A6   70 FE      L13A6     BVS L13A6          ;(2/3)
13A8   A9 E3                LDA #$E3           ;(2)
13AA   85 03                STA $03            ;(3)
13AC   A9 FF                LDA #$FF           ;(2)
13AE   85 10                STA $10            ;(3)
13B0   8D 00 10             STA L1000          ;(4)
13B3   A9 00                LDA #$00           ;(2)
13B5   24 10                BIT $10            ;(3)
13B7   D0 FE      L13B7     BNE L13B7          ;(2/3)
13B9   10 FE      L13B9     BPL L13B9          ;(2/3)
13BB   50 FE      L13BB     BVC L13BB          ;(2/3)
13BD   A9 E4                LDA #$E4           ;(2)
13BF   85 03                STA $03            ;(3)
13C1   A9 00                LDA #$00           ;(2)
13C3   2C 00 10             BIT L1000          ;(4)
13C6   D0 FE      L13C6     BNE L13C6          ;(2/3)
13C8   10 FE      L13C8     BPL L13C8          ;(2/3)
13CA   50 FE      L13CA     BVC L13CA          ;(2/3)
13CC   A9 E5                LDA #$E5           ;(2)
13CE   85 03                STA $03            ;(3)
13D0   A9 55                LDA #$55           ;(2)
13D2   85 10                STA $10            ;(3)
13D4   8D 00 10             STA L1000          ;(4)
13D7   A9 54                LDA #$54           ;(2)
13D9   24 10                BIT $10            ;(3)
13DB   F0 FE      L13DB     BEQ L13DB          ;(2/3)
13DD   30 FE      L13DD     BMI L13DD          ;(2/3)
13DF   50 FE      L13DF     BVC L13DF          ;(2/3)
13E1   A9 E6                LDA #$E6           ;(2)
13E3   85 03                STA $03            ;(3)
13E5   A9 54                LDA #$54           ;(2)
13E7   2C 00 10             BIT L1000          ;(4)
13EA   F0 FE      L13EA     BEQ L13EA          ;(2/3)
13EC   30 FE      L13EC     BMI L13EC          ;(2/3)
13EE   50 FE      L13EE     BVC L13EE          ;(2/3)
13F0   A9 E7                LDA #$E7           ;(2)
13F2   85 03                STA $03            ;(3)
13F4   A9 AA                LDA #$AA           ;(2)
13F6   85 10                STA $10            ;(3)
13F8   8D 00 10             STA L1000          ;(4)
13FB   95 10                STA $10,X          ;(4)
13FD   9D 00 10             STA L1000,X        ;(5)
1400   C6 10                DEC $10            ;(5)
1402   A5 10                LDA $10            ;(3)
1404   C9 A9                CMP #$A9           ;(2)
1406   D0 FE      L1406     BNE L1406          ;(2/3)
1408   CE 00 10             DEC L1000          ;(6)
140B   AD 00 10             LDA L1000          ;(4)
140E   C9 A9                CMP #$A9           ;(2)
1410   D0 FE      L1410     BNE L1410          ;(2/3)
1412   D6 10                DEC $10,X          ;(6)
1414   B5 10                LDA $10,X          ;(4)
1416   C9 A9                CMP #$A9           ;(2)
1418   D0 FE      L1418     BNE L1418          ;(2/3)
141A   DE 00 10             DEC L1000,X        ;(7)
141D   BD 00 10             LDA L1000,X        ;(4/5)
1420   C9 A9                CMP #$A9           ;(2)
1422   D0 FE      L1422     BNE L1422          ;(2/3)
1424   A9 E7                LDA #$E7           ;(2)
1426   85 03                STA $03            ;(3)
1428   E6 10                INC $10            ;(5)
142A   A5 10                LDA $10            ;(3)
142C   C9 AA                CMP #$AA           ;(2)
142E   D0 FE      L142E     BNE L142E          ;(2/3)
1430   EE 00 10             INC L1000          ;(6)
1433   AD 00 10             LDA L1000          ;(4)
1436   C9 AA                CMP #$AA           ;(2)
1438   D0 FE      L1438     BNE L1438          ;(2/3)
143A   F6 10                INC $10,X          ;(6)
143C   B5 10                LDA $10,X          ;(4)
143E   C9 AA                CMP #$AA           ;(2)
1440   D0 FE      L1440     BNE L1440          ;(2/3)
1442   FE 00 10             INC L1000,X        ;(7)
1445   BD 00 10             LDA L1000,X        ;(4/5)
1448   C9 AA                CMP #$AA           ;(2)
144A   D0 FE      L144A     BNE L144A          ;(2/3)
144C   A9 E8                LDA #$E8           ;(2)
144E   85 03                STA $03            ;(3)
1450   A9 55                LDA #$55           ;(2)
1452   85 10                STA $10            ;(3)
1454   8D 00 10             STA L1000          ;(4)
1457   95 10                STA $10,X          ;(4)
1459   9D 00 10             STA L1000,X        ;(5)
145C   99 00 10             STA L1000,Y        ;(5)
145F   81 10                STA ($10,X)        ;(6)
1461   91 14                STA ($14),Y        ;(6)
1463   A9 AA                LDA #$AA           ;(2)
1465   49 55                EOR #$55           ;(2)
1467   F0 FE      L1467     BEQ L1467          ;(2/3)
1469   10 FE      L1469     BPL L1469          ;(2/3)
146B   C9 FF                CMP #$FF           ;(2)
146D   D0 FE      L146D     BNE L146D          ;(2/3)
146F   A9 E9                LDA #$E9           ;(2)
1471   85 03                STA $03            ;(3)
1473   A9 AA                LDA #$AA           ;(2)
1475   45 10                EOR $10            ;(3)
1477   F0 FE      L1477     BEQ L1477          ;(2/3)
1479   10 FE      L1479     BPL L1479          ;(2/3)
147B   C9 FF                CMP #$FF           ;(2)
147D   D0 FE      L147D     BNE L147D          ;(2/3)
147F   A9 EA                LDA #$EA           ;(2)
1481   85 03                STA $03            ;(3)
1483   A9 AA                LDA #$AA           ;(2)
1485   4D 00 10             EOR L1000          ;(4)
1488   F0 FE      L1488     BEQ L1488          ;(2/3)
148A   10 FE      L148A     BPL L148A          ;(2/3)
148C   C9 FF                CMP #$FF           ;(2)
148E   D0 FE      L148E     BNE L148E          ;(2/3)
1490   A9 EB                LDA #$EB           ;(2)
1492   85 03                STA $03            ;(3)
1494   A9 AA                LDA #$AA           ;(2)
1496   55 10                EOR $10,X          ;(4)
1498   F0 FE      L1498     BEQ L1498          ;(2/3)
149A   10 FE      L149A     BPL L149A          ;(2/3)
149C   C9 FF                CMP #$FF           ;(2)
149E   D0 FE      L149E     BNE L149E          ;(2/3)
14A0   A9 EC                LDA #$EC           ;(2)
14A2   85 03                STA $03            ;(3)
14A4   A9 AA                LDA #$AA           ;(2)
14A6   5D 00 10             EOR L1000,X        ;(4/5)
14A9   F0 FE      L14A9     BEQ L14A9          ;(2/3)
14AB   10 FE      L14AB     BPL L14AB          ;(2/3)
14AD   C9 FF                CMP #$FF           ;(2)
14AF   D0 FE      L14AF     BNE L14AF          ;(2/3)
14B1   A9 ED                LDA #$ED           ;(2)
14B3   85 03                STA $03            ;(3)
14B5   A9 AA                LDA #$AA           ;(2)
14B7   59 00 10             EOR L1000,Y        ;(4/5)
14BA   F0 FE      L14BA     BEQ L14BA          ;(2/3)
14BC   10 FE      L14BC     BPL L14BC          ;(2/3)
14BE   C9 FF                CMP #$FF           ;(2)
14C0   D0 FE      L14C0     BNE L14C0          ;(2/3)
14C2   A9 EE                LDA #$EE           ;(2)
14C4   85 03                STA $03            ;(3)
14C6   A9 AA                LDA #$AA           ;(2)
14C8   41 10                EOR ($10,X)        ;(6)
14CA   F0 FE      L14CA     BEQ L14CA          ;(2/3)
14CC   10 FE      L14CC     BPL L14CC          ;(2/3)
14CE   C9 FF                CMP #$FF           ;(2)
14D0   D0 FE      L14D0     BNE L14D0          ;(2/3)
14D2   A9 EF                LDA #$EF           ;(2)
14D4   85 03                STA $03            ;(3)
14D6   A9 AA                LDA #$AA           ;(2)
14D8   51 14                EOR ($14),Y        ;(5/6)
14DA   F0 FE      L14DA     BEQ L14DA          ;(2/3)
14DC   10 FE      L14DC     BPL L14DC          ;(2/3)
14DE   C9 FF                CMP #$FF           ;(2)
14E0   D0 FE      L14E0     BNE L14E0          ;(2/3)
14E2   A9 F0                LDA #$F0           ;(2)
14E4   85 03                STA $03            ;(3)
14E6   A9 CC                LDA #$CC           ;(2)
14E8   85 10                STA $10            ;(3)
14EA   8D 00 10             STA L1000          ;(4)
14ED   95 10                STA $10,X          ;(4)
14EF   9D 00 10             STA L1000,X        ;(5)
14F2   99 00 10             STA L1000,Y        ;(5)
14F5   81 10                STA ($10,X)        ;(6)
14F7   91 14                STA ($14),Y        ;(6)
14F9   A9 CC                LDA #$CC           ;(2)
14FB   49 CC                EOR #$CC           ;(2)
14FD   D0 FE      L14FD     BNE L14FD          ;(2/3)
14FF   30 FE      L14FF     BMI L14FF          ;(2/3)
1501   A9 F1                LDA #$F1           ;(2)
1503   85 03                STA $03            ;(3)
1505   A9 CC                LDA #$CC           ;(2)
1507   45 10                EOR $10            ;(3)
1509   D0 FE      L1509     BNE L1509          ;(2/3)
150B   30 FE      L150B     BMI L150B          ;(2/3)
150D   A9 F2                LDA #$F2           ;(2)
150F   85 03                STA $03            ;(3)
1511   A9 CC                LDA #$CC           ;(2)
1513   4D 00 10             EOR L1000          ;(4)
1516   D0 FE      L1516     BNE L1516          ;(2/3)
1518   30 FE      L1518     BMI L1518          ;(2/3)
151A   A9 F3                LDA #$F3           ;(2)
151C   85 03                STA $03            ;(3)
151E   A9 CC                LDA #$CC           ;(2)
1520   55 10                EOR $10,X          ;(4)
1522   D0 FE      L1522     BNE L1522          ;(2/3)
1524   30 FE      L1524     BMI L1524          ;(2/3)
1526   A9 F4                LDA #$F4           ;(2)
1528   85 03                STA $03            ;(3)
152A   A9 CC                LDA #$CC           ;(2)
152C   5D 00 10             EOR L1000,X        ;(4/5)
152F   D0 FE      L152F     BNE L152F          ;(2/3)
1531   30 FE      L1531     BMI L1531          ;(2/3)
1533   A9 F5                LDA #$F5           ;(2)
1535   85 03                STA $03            ;(3)
1537   A9 CC                LDA #$CC           ;(2)
1539   59 00 10             EOR L1000,Y        ;(4/5)
153C   D0 FE      L153C     BNE L153C          ;(2/3)
153E   30 FE      L153E     BMI L153E          ;(2/3)
1540   A9 F6                LDA #$F6           ;(2)
1542   85 03                STA $03            ;(3)
1544   A9 CC                LDA #$CC           ;(2)
1546   41 10                EOR ($10,X)        ;(6)
1548   D0 FE      L1548     BNE L1548          ;(2/3)
154A   30 FE      L154A     BMI L154A          ;(2/3)
154C   A9 F7                LDA #$F7           ;(2)
154E   85 03                STA $03            ;(3)
1550   A9 CC                LDA #$CC           ;(2)
1552   51 14                EOR ($14),Y        ;(5/6)
1554   D0 FE      L1554     BNE L1554          ;(2/3)
1556   30 FE      L1556     BMI L1556          ;(2/3)
1558   A9 F8                LDA #$F8           ;(2)
155A   85 03                STA $03            ;(3)
155C   A9 09                LDA #$09           ;(2)
155E   8D 00 10             STA L1000          ;(4)
1561   A9 E0                LDA #$E0           ;(2)
1563   8D 01 10             STA $1001          ;(4)
1566   6C 00 10             JMP (L1000)        ;(5)
1569   EA                   NOP                ;(2)
156A   38                   SEC                ;(2)
156B   B0 FE      L156B     BCS L156B          ;(2/3)
156D   EA                   NOP                ;(2)
156E   EA                   NOP                ;(2)
156F   A9 F9                LDA #$F9           ;(2)
1571   85 03                STA $03            ;(3)
1573   A2 F8                LDX #$F8           ;(2)
1575   9A                   TXS                ;(2)
1576   38                   SEC                ;(2)
1577   A9 FF                LDA #$FF           ;(2)
1579   20 0D E0             JSR $E00D          ;(6)
157C   B0 FE      L157C     BCS L157C          ;(2/3)
157E   D0 FE      L157E     BNE L157E          ;(2/3)
1580   EA                   NOP                ;(2)
1581   A9 FA                LDA #$FA           ;(2)
1583   85 03                STA $03            ;(3)
1585   A9 FF                LDA #$FF           ;(2)
1587   48                   PHA                ;(3)
1588   68                   PLA                ;(4)
1589   85 06                STA L0006          ;(3)
158B   C9 FF                CMP #$FF           ;(2)
158D   D0 FE      L158D     BNE L158D          ;(2/3)
158F   A2 00                LDX #$00           ;(2)
1591   A9 FF                LDA #$FF           ;(2)
1593   48                   PHA                ;(3)
1594   28                   PLP                ;(4)
1595   8E F8 01             STX L01F8          ;(4)
1598   08                   PHP                ;(3)
1599   68                   PLA                ;(4)
159A   85 08                STA $08            ;(3)
159C   C9 FF                CMP #$FF           ;(2)
159E   D0 FE      L159E     BNE L159E          ;(2/3)
15A0   AA                   TAX                ;(2)
15A1   A9 00                LDA #$00           ;(2)
15A3   48                   PHA                ;(3)
15A4   28                   PLP                ;(4)
15A5   8E F8 01             STX L01F8          ;(4)
15A8   08                   PHP                ;(3)
15A9   68                   PLA                ;(4)
15AA   29 20                AND #$20           ;(2)
15AC   C9 20                CMP #$20           ;(2)
15AE   D0 FE      L15AE     BNE L15AE          ;(2/3)
15B0   A9 FB                LDA #$FB           ;(2)
15B2   85 03                STA $03            ;(3)
15B4   00                   BRK                ;(7)
15B5   EA                   NOP                ;(2)
15B6   A9 FC                LDA #$FC           ;(2)
15B8   85 03                STA $03            ;(3)
15BA   F8                   SED                ;(2)
15BB   18                   CLC                ;(2)
15BC   A9 12                LDA #$12           ;(2)
15BE   69 34                ADC #$34           ;(2)
15C0   B0 FE      L15C0     BCS L15C0          ;(2/3)
15C2   C9 46                CMP #$46           ;(2)
15C4   D0 FE      L15C4     BNE L15C4          ;(2/3)
15C6   90 FE      L15C6     BCC L15C6          ;(2/3)
15C8   30 FE      L15C8     BMI L15C8          ;(2/3)
15CA   38                   SEC                ;(2)
15CB   69 34                ADC #$34           ;(2)
15CD   B0 FE      L15CD     BCS L15CD          ;(2/3)
15CF   10 FE      L15CF     BPL L15CF          ;(2/3)
15D1   85 04                STA $04            ;(3)
15D3   C9 81                CMP #$81           ;(2)
15D5   D0 FE      L15D5     BNE L15D5          ;(2/3)
15D7   18                   CLC                ;(2)
15D8   69 19                ADC #$19           ;(2)
15DA   85 04                STA $04            ;(3)
15DC   D0 FE      L15DC     BNE L15DC          ;(2/3)
15DE   90 FE      L15DE     BCC L15DE          ;(2/3)
15E0   30 FE      L15E0     BMI L15E0          ;(2/3)
15E2   A9 FD                LDA #$FD           ;(2)
15E4   85 03                STA $03            ;(3)
15E6   A9 FE                LDA #$FE           ;(2)
15E8   85 03                STA $03            ;(3)
15EA   4C EA F5             JMP $F5EA          ;(3)
15ED   FF FF FF             ISC $FFFF,X        ;(7)
15F0   FF FF FF             ISC $FFFF,X        ;(7)
15F3   FF FF FF             ISC $FFFF,X        ;(7)
15F6   FF FF FF             ISC $FFFF,X        ;(7)
15F9   FF FF FF             ISC $FFFF,X        ;(7)
15FC   FF FF FF             ISC $FFFF,X        ;(7)
15FF   FF FF FF             ISC $FFFF,X        ;(7)
1602   FF FF FF             ISC $FFFF,X        ;(7)
1605   FF FF FF             ISC $FFFF,X        ;(7)
1608   FF FF FF             ISC $FFFF,X        ;(7)
160B   FF FF FF             ISC $FFFF,X        ;(7)
160E   FF FF FF             ISC $FFFF,X        ;(7)
1611   FF FF FF             ISC $FFFF,X        ;(7)
1614   FF FF FF             ISC $FFFF,X        ;(7)
1617   FF FF FF             ISC $FFFF,X        ;(7)
161A   FF FF FF             ISC $FFFF,X        ;(7)
161D   FF FF FF             ISC $FFFF,X        ;(7)
1620   FF FF FF             ISC $FFFF,X        ;(7)
1623   FF FF FF             ISC $FFFF,X        ;(7)
1626   FF FF FF             ISC $FFFF,X        ;(7)
1629   FF FF FF             ISC $FFFF,X        ;(7)
162C   FF FF FF             ISC $FFFF,X        ;(7)
162F   FF FF FF             ISC $FFFF,X        ;(7)
1632   FF FF FF             ISC $FFFF,X        ;(7)
1635   FF FF FF             ISC $FFFF,X        ;(7)
1638   FF FF FF             ISC $FFFF,X        ;(7)
163B   FF FF FF             ISC $FFFF,X        ;(7)
163E   FF FF FF             ISC $FFFF,X        ;(7)
1641   FF FF FF             ISC $FFFF,X        ;(7)
1644   FF FF FF             ISC $FFFF,X        ;(7)
1647   FF FF FF             ISC $FFFF,X        ;(7)
164A   FF FF FF             ISC $FFFF,X        ;(7)
164D   FF FF FF             ISC $FFFF,X        ;(7)
1650   FF FF FF             ISC $FFFF,X        ;(7)
1653   FF FF FF             ISC $FFFF,X        ;(7)
1656   FF FF FF             ISC $FFFF,X        ;(7)
1659   FF FF FF             ISC $FFFF,X        ;(7)
165C   FF FF FF             ISC $FFFF,X        ;(7)
165F   FF FF FF             ISC $FFFF,X        ;(7)
1662   FF FF FF             ISC $FFFF,X        ;(7)
1665   FF FF FF             ISC $FFFF,X        ;(7)
1668   FF FF FF             ISC $FFFF,X        ;(7)
166B   FF FF FF             ISC $FFFF,X        ;(7)
166E   FF FF FF             ISC $FFFF,X        ;(7)
1671   FF FF FF             ISC $FFFF,X        ;(7)
1674   FF FF FF             ISC $FFFF,X        ;(7)
1677   FF FF FF             ISC $FFFF,X        ;(7)
167A   FF FF FF             ISC $FFFF,X        ;(7)
167D   FF FF FF             ISC $FFFF,X        ;(7)
1680   FF FF FF             ISC $FFFF,X        ;(7)
1683   FF FF FF             ISC $FFFF,X        ;(7)
1686   FF FF FF             ISC $FFFF,X        ;(7)
1689   FF FF FF             ISC $FFFF,X        ;(7)
168C   FF FF FF             ISC $FFFF,X        ;(7)
168F   FF FF FF             ISC $FFFF,X        ;(7)
1692   FF FF FF             ISC $FFFF,X        ;(7)
1695   FF FF FF             ISC $FFFF,X        ;(7)
1698   FF FF FF             ISC $FFFF,X        ;(7)
169B   FF FF FF             ISC $FFFF,X        ;(7)
169E   FF FF FF             ISC $FFFF,X        ;(7)
16A1   FF FF FF             ISC $FFFF,X        ;(7)
16A4   FF FF FF             ISC $FFFF,X        ;(7)
16A7   FF FF FF             ISC $FFFF,X        ;(7)
16AA   FF FF FF             ISC $FFFF,X        ;(7)
16AD   FF FF FF             ISC $FFFF,X        ;(7)
16B0   FF FF FF             ISC $FFFF,X        ;(7)
16B3   FF FF FF             ISC $FFFF,X        ;(7)
16B6   FF FF FF             ISC $FFFF,X        ;(7)
16B9   FF FF FF             ISC $FFFF,X        ;(7)
16BC   FF FF FF             ISC $FFFF,X        ;(7)
16BF   FF FF FF             ISC $FFFF,X        ;(7)
16C2   FF FF FF             ISC $FFFF,X        ;(7)
16C5   FF FF FF             ISC $FFFF,X        ;(7)
16C8   FF FF FF             ISC $FFFF,X        ;(7)
16CB   FF FF FF             ISC $FFFF,X        ;(7)
16CE   FF FF FF             ISC $FFFF,X        ;(7)
16D1   FF FF FF             ISC $FFFF,X        ;(7)
16D4   FF FF FF             ISC $FFFF,X        ;(7)
16D7   FF FF FF             ISC $FFFF,X        ;(7)
16DA   FF FF FF             ISC $FFFF,X        ;(7)
16DD   FF FF FF             ISC $FFFF,X        ;(7)
16E0   FF FF FF             ISC $FFFF,X        ;(7)
16E3   FF FF FF             ISC $FFFF,X        ;(7)
16E6   FF FF FF             ISC $FFFF,X        ;(7)
16E9   FF FF FF             ISC $FFFF,X        ;(7)
16EC   FF FF FF             ISC $FFFF,X        ;(7)
16EF   FF FF FF             ISC $FFFF,X        ;(7)
16F2   FF FF FF             ISC $FFFF,X        ;(7)
16F5   FF FF FF             ISC $FFFF,X        ;(7)
16F8   FF FF FF             ISC $FFFF,X        ;(7)
16FB   FF FF FF             ISC $FFFF,X        ;(7)
16FE   FF FF FF             ISC $FFFF,X        ;(7)
1701   FF FF FF             ISC $FFFF,X        ;(7)
1704   FF FF FF             ISC $FFFF,X        ;(7)
1707   FF FF FF             ISC $FFFF,X        ;(7)
170A   FF FF FF             ISC $FFFF,X        ;(7)
170D   FF FF FF             ISC $FFFF,X        ;(7)
1710   FF FF FF             ISC $FFFF,X        ;(7)
1713   FF FF FF             ISC $FFFF,X        ;(7)
1716   FF FF FF             ISC $FFFF,X        ;(7)
1719   FF FF FF             ISC $FFFF,X        ;(7)
171C   FF FF FF             ISC $FFFF,X        ;(7)
171F   FF FF FF             ISC $FFFF,X        ;(7)
1722   FF FF FF             ISC $FFFF,X        ;(7)
1725   FF FF FF             ISC $FFFF,X        ;(7)
1728   FF FF FF             ISC $FFFF,X        ;(7)
172B   FF FF FF             ISC $FFFF,X        ;(7)
172E   FF FF FF             ISC $FFFF,X        ;(7)
1731   FF FF FF             ISC $FFFF,X        ;(7)
1734   FF FF FF             ISC $FFFF,X        ;(7)
1737   FF FF FF             ISC $FFFF,X        ;(7)
173A   FF FF FF             ISC $FFFF,X        ;(7)
173D   FF FF FF             ISC $FFFF,X        ;(7)
1740   FF FF FF             ISC $FFFF,X        ;(7)
1743   FF FF FF             ISC $FFFF,X        ;(7)
1746   FF FF FF             ISC $FFFF,X        ;(7)
1749   FF FF FF             ISC $FFFF,X        ;(7)
174C   FF FF FF             ISC $FFFF,X        ;(7)
174F   FF FF FF             ISC $FFFF,X        ;(7)
1752   FF FF FF             ISC $FFFF,X        ;(7)
1755   FF FF FF             ISC $FFFF,X        ;(7)
1758   FF FF FF             ISC $FFFF,X        ;(7)
175B   FF FF FF             ISC $FFFF,X        ;(7)
175E   FF FF FF             ISC $FFFF,X        ;(7)
1761   FF FF FF             ISC $FFFF,X        ;(7)
1764   FF FF FF             ISC $FFFF,X        ;(7)
1767   FF FF FF             ISC $FFFF,X        ;(7)
176A   FF FF FF             ISC $FFFF,X        ;(7)
176D   FF FF FF             ISC $FFFF,X        ;(7)
1770   FF FF FF             ISC $FFFF,X        ;(7)
1773   FF FF FF             ISC $FFFF,X        ;(7)
1776   FF FF FF             ISC $FFFF,X        ;(7)
1779   FF FF FF             ISC $FFFF,X        ;(7)
177C   FF FF FF             ISC $FFFF,X        ;(7)
177F   FF FF FF             ISC $FFFF,X        ;(7)
1782   FF FF FF             ISC $FFFF,X        ;(7)
1785   FF FF FF             ISC $FFFF,X        ;(7)
1788   FF FF FF             ISC $FFFF,X        ;(7)
178B   FF FF FF             ISC $FFFF,X        ;(7)
178E   FF FF FF             ISC $FFFF,X        ;(7)
1791   FF FF FF             ISC $FFFF,X        ;(7)
1794   FF FF FF             ISC $FFFF,X        ;(7)
1797   FF FF FF             ISC $FFFF,X        ;(7)
179A   FF FF FF             ISC $FFFF,X        ;(7)
179D   FF FF FF             ISC $FFFF,X        ;(7)
17A0   FF FF FF             ISC $FFFF,X        ;(7)
17A3   FF FF FF             ISC $FFFF,X        ;(7)
17A6   FF FF FF             ISC $FFFF,X        ;(7)
17A9   FF FF FF             ISC $FFFF,X        ;(7)
17AC   FF FF FF             ISC $FFFF,X        ;(7)
17AF   FF FF FF             ISC $FFFF,X        ;(7)
17B2   FF FF FF             ISC $FFFF,X        ;(7)
17B5   FF FF FF             ISC $FFFF,X        ;(7)
17B8   FF FF FF             ISC $FFFF,X        ;(7)
17BB   FF FF FF             ISC $FFFF,X        ;(7)
17BE   FF FF FF             ISC $FFFF,X        ;(7)
17C1   FF FF FF             ISC $FFFF,X        ;(7)
17C4   FF FF FF             ISC $FFFF,X        ;(7)
17C7   FF FF FF             ISC $FFFF,X        ;(7)
17CA   FF FF FF             ISC $FFFF,X        ;(7)
17CD   FF FF FF             ISC $FFFF,X        ;(7)
17D0   FF FF FF             ISC $FFFF,X        ;(7)
17D3   FF FF FF             ISC $FFFF,X        ;(7)
17D6   FF FF FF             ISC $FFFF,X        ;(7)
17D9   FF FF FF             ISC $FFFF,X        ;(7)
17DC   FF FF FF             ISC $FFFF,X        ;(7)
17DF   FF FF FF             ISC $FFFF,X        ;(7)
17E2   FF FF FF             ISC $FFFF,X        ;(7)
17E5   FF FF FF             ISC $FFFF,X        ;(7)
17E8   FF FF FF             ISC $FFFF,X        ;(7)
17EB   FF FF FF             ISC $FFFF,X        ;(7)
17EE   FF FF FF             ISC $FFFF,X        ;(7)
17F1   FF FF FF             ISC $FFFF,X        ;(7)
17F4   FF FF FF             ISC $FFFF,X        ;(7)
17F7   FF FF FF             ISC $FFFF,X        ;(7)
17FA   FF FF FF             ISC $FFFF,X        ;(7)
17FD   FF FF FF             ISC $FFFF,X        ;(7)
1800   FF FF FF             ISC $FFFF,X        ;(7)
1803   FF FF FF             ISC $FFFF,X        ;(7)
1806   FF FF FF             ISC $FFFF,X        ;(7)
1809   FF FF FF             ISC $FFFF,X        ;(7)
180C   FF FF FF             ISC $FFFF,X        ;(7)
180F   FF FF FF             ISC $FFFF,X        ;(7)
1812   FF FF FF             ISC $FFFF,X        ;(7)
1815   FF FF FF             ISC $FFFF,X        ;(7)
1818   FF FF FF             ISC $FFFF,X        ;(7)
181B   FF FF FF             ISC $FFFF,X        ;(7)
181E   FF FF FF             ISC $FFFF,X        ;(7)
1821   FF FF FF             ISC $FFFF,X        ;(7)
1824   FF FF FF             ISC $FFFF,X        ;(7)
1827   FF FF FF             ISC $FFFF,X        ;(7)
182A   FF FF FF             ISC $FFFF,X        ;(7)
182D   FF FF FF             ISC $FFFF,X        ;(7)
1830   FF FF FF             ISC $FFFF,X        ;(7)
1833   FF FF FF             ISC $FFFF,X        ;(7)
1836   FF FF FF             ISC $FFFF,X        ;(7)
1839   FF FF FF             ISC $FFFF,X        ;(7)
183C   FF FF FF             ISC $FFFF,X        ;(7)
183F   FF FF FF             ISC $FFFF,X        ;(7)
1842   FF FF FF             ISC $FFFF,X        ;(7)
1845   FF FF FF             ISC $FFFF,X        ;(7)
1848   FF FF FF             ISC $FFFF,X        ;(7)
184B   FF FF FF             ISC $FFFF,X        ;(7)
184E   FF FF FF             ISC $FFFF,X        ;(7)
1851   FF FF FF             ISC $FFFF,X        ;(7)
1854   FF FF FF             ISC $FFFF,X        ;(7)
1857   FF FF FF             ISC $FFFF,X        ;(7)
185A   FF FF FF             ISC $FFFF,X        ;(7)
185D   FF FF FF             ISC $FFFF,X        ;(7)
1860   FF FF FF             ISC $FFFF,X        ;(7)
1863   FF FF FF             ISC $FFFF,X        ;(7)
1866   FF FF FF             ISC $FFFF,X        ;(7)
1869   FF FF FF             ISC $FFFF,X        ;(7)
186C   FF FF FF             ISC $FFFF,X        ;(7)
186F   FF FF FF             ISC $FFFF,X        ;(7)
1872   FF FF FF             ISC $FFFF,X        ;(7)
1875   FF FF FF             ISC $FFFF,X        ;(7)
1878   FF FF FF             ISC $FFFF,X        ;(7)
187B   FF FF FF             ISC $FFFF,X        ;(7)
187E   FF FF FF             ISC $FFFF,X        ;(7)
1881   FF FF FF             ISC $FFFF,X        ;(7)
1884   FF FF FF             ISC $FFFF,X        ;(7)
1887   FF FF FF             ISC $FFFF,X        ;(7)
188A   FF FF FF             ISC $FFFF,X        ;(7)
188D   FF FF FF             ISC $FFFF,X        ;(7)
1890   FF FF FF             ISC $FFFF,X        ;(7)
1893   FF FF FF             ISC $FFFF,X        ;(7)
1896   FF FF FF             ISC $FFFF,X        ;(7)
1899   FF FF FF             ISC $FFFF,X        ;(7)
189C   FF FF FF             ISC $FFFF,X        ;(7)
189F   FF FF FF             ISC $FFFF,X        ;(7)
18A2   FF FF FF             ISC $FFFF,X        ;(7)
18A5   FF FF FF             ISC $FFFF,X        ;(7)
18A8   FF FF FF             ISC $FFFF,X        ;(7)
18AB   FF FF FF             ISC $FFFF,X        ;(7)
18AE   FF FF FF             ISC $FFFF,X        ;(7)
18B1   FF FF FF             ISC $FFFF,X        ;(7)
18B4   FF FF FF             ISC $FFFF,X        ;(7)
18B7   FF FF FF             ISC $FFFF,X        ;(7)
18BA   FF FF FF             ISC $FFFF,X        ;(7)
18BD   FF FF FF             ISC $FFFF,X        ;(7)
18C0   FF FF FF             ISC $FFFF,X        ;(7)
18C3   FF FF FF             ISC $FFFF,X        ;(7)
18C6   FF FF FF             ISC $FFFF,X        ;(7)
18C9   FF FF FF             ISC $FFFF,X        ;(7)
18CC   FF FF FF             ISC $FFFF,X        ;(7)
18CF   FF FF FF             ISC $FFFF,X        ;(7)
18D2   FF FF FF             ISC $FFFF,X        ;(7)
18D5   FF FF FF             ISC $FFFF,X        ;(7)
18D8   FF FF FF             ISC $FFFF,X        ;(7)
18DB   FF FF FF             ISC $FFFF,X        ;(7)
18DE   FF FF FF             ISC $FFFF,X        ;(7)
18E1   FF FF FF             ISC $FFFF,X        ;(7)
18E4   FF FF FF             ISC $FFFF,X        ;(7)
18E7   FF FF FF             ISC $FFFF,X        ;(7)
18EA   FF FF FF             ISC $FFFF,X        ;(7)
18ED   FF FF FF             ISC $FFFF,X        ;(7)
18F0   FF FF FF             ISC $FFFF,X        ;(7)
18F3   FF FF FF             ISC $FFFF,X        ;(7)
18F6   FF FF FF             ISC $FFFF,X        ;(7)
18F9   FF FF FF             ISC $FFFF,X        ;(7)
18FC   FF FF FF             ISC $FFFF,X        ;(7)
18FF   FF FF FF             ISC $FFFF,X        ;(7)
1902   FF FF FF             ISC $FFFF,X        ;(7)
1905   FF FF FF             ISC $FFFF,X        ;(7)
1908   FF FF FF             ISC $FFFF,X        ;(7)
190B   FF FF FF             ISC $FFFF,X        ;(7)
190E   FF FF FF             ISC $FFFF,X        ;(7)
1911   FF FF FF             ISC $FFFF,X        ;(7)
1914   FF FF FF             ISC $FFFF,X        ;(7)
1917   FF FF FF             ISC $FFFF,X        ;(7)
191A   FF FF FF             ISC $FFFF,X        ;(7)
191D   FF FF FF             ISC $FFFF,X        ;(7)
1920   FF FF FF             ISC $FFFF,X        ;(7)
1923   FF FF FF             ISC $FFFF,X        ;(7)
1926   FF FF FF             ISC $FFFF,X        ;(7)
1929   FF FF FF             ISC $FFFF,X        ;(7)
192C   FF FF FF             ISC $FFFF,X        ;(7)
192F   FF FF FF             ISC $FFFF,X        ;(7)
1932   FF FF FF             ISC $FFFF,X        ;(7)
1935   FF FF FF             ISC $FFFF,X        ;(7)
1938   FF FF FF             ISC $FFFF,X        ;(7)
193B   FF FF FF             ISC $FFFF,X        ;(7)
193E   FF FF FF             ISC $FFFF,X        ;(7)
1941   FF FF FF             ISC $FFFF,X        ;(7)
1944   FF FF FF             ISC $FFFF,X        ;(7)
1947   FF FF FF             ISC $FFFF,X        ;(7)
194A   FF FF FF             ISC $FFFF,X        ;(7)
194D   FF FF FF             ISC $FFFF,X        ;(7)
1950   FF FF FF             ISC $FFFF,X        ;(7)
1953   FF FF FF             ISC $FFFF,X        ;(7)
1956   FF FF FF             ISC $FFFF,X        ;(7)
1959   FF FF FF             ISC $FFFF,X        ;(7)
195C   FF FF FF             ISC $FFFF,X        ;(7)
195F   FF FF FF             ISC $FFFF,X        ;(7)
1962   FF FF FF             ISC $FFFF,X        ;(7)
1965   FF FF FF             ISC $FFFF,X        ;(7)
1968   FF FF FF             ISC $FFFF,X        ;(7)
196B   FF FF FF             ISC $FFFF,X        ;(7)
196E   FF FF FF             ISC $FFFF,X        ;(7)
1971   FF FF FF             ISC $FFFF,X        ;(7)
1974   FF FF FF             ISC $FFFF,X        ;(7)
1977   FF FF FF             ISC $FFFF,X        ;(7)
197A   FF FF FF             ISC $FFFF,X        ;(7)
197D   FF FF FF             ISC $FFFF,X        ;(7)
1980   FF FF FF             ISC $FFFF,X        ;(7)
1983   FF FF FF             ISC $FFFF,X        ;(7)
1986   FF FF FF             ISC $FFFF,X        ;(7)
1989   FF FF FF             ISC $FFFF,X        ;(7)
198C   FF FF FF             ISC $FFFF,X        ;(7)
198F   FF FF FF             ISC $FFFF,X        ;(7)
1992   FF FF FF             ISC $FFFF,X        ;(7)
1995   FF FF FF             ISC $FFFF,X        ;(7)
1998   FF FF FF             ISC $FFFF,X        ;(7)
199B   FF FF FF             ISC $FFFF,X        ;(7)
199E   FF FF FF             ISC $FFFF,X        ;(7)
19A1   FF FF FF             ISC $FFFF,X        ;(7)
19A4   FF FF FF             ISC $FFFF,X        ;(7)
19A7   FF FF FF             ISC $FFFF,X        ;(7)
19AA   FF FF FF             ISC $FFFF,X        ;(7)
19AD   FF FF FF             ISC $FFFF,X        ;(7)
19B0   FF FF FF             ISC $FFFF,X        ;(7)
19B3   FF FF FF             ISC $FFFF,X        ;(7)
19B6   FF FF FF             ISC $FFFF,X        ;(7)
19B9   FF FF FF             ISC $FFFF,X        ;(7)
19BC   FF FF FF             ISC $FFFF,X        ;(7)
19BF   FF FF FF             ISC $FFFF,X        ;(7)
19C2   FF FF FF             ISC $FFFF,X        ;(7)
19C5   FF FF FF             ISC $FFFF,X        ;(7)
19C8   FF FF FF             ISC $FFFF,X        ;(7)
19CB   FF FF FF             ISC $FFFF,X        ;(7)
19CE   FF FF FF             ISC $FFFF,X        ;(7)
19D1   FF FF FF             ISC $FFFF,X        ;(7)
19D4   FF FF FF             ISC $FFFF,X        ;(7)
19D7   FF FF FF             ISC $FFFF,X        ;(7)
19DA   FF FF FF             ISC $FFFF,X        ;(7)
19DD   FF FF FF             ISC $FFFF,X        ;(7)
19E0   FF FF FF             ISC $FFFF,X        ;(7)
19E3   FF FF FF             ISC $FFFF,X        ;(7)
19E6   FF FF FF             ISC $FFFF,X        ;(7)
19E9   FF FF FF             ISC $FFFF,X        ;(7)
19EC   FF FF FF             ISC $FFFF,X        ;(7)
19EF   FF FF FF             ISC $FFFF,X        ;(7)
19F2   FF FF FF             ISC $FFFF,X        ;(7)
19F5   FF FF FF             ISC $FFFF,X        ;(7)
19F8   FF FF FF             ISC $FFFF,X        ;(7)
19FB   FF FF FF             ISC $FFFF,X        ;(7)
19FE   FF FF FF             ISC $FFFF,X        ;(7)
1A01   FF FF FF             ISC $FFFF,X        ;(7)
1A04   FF FF FF             ISC $FFFF,X        ;(7)
1A07   FF FF FF             ISC $FFFF,X        ;(7)
1A0A   FF FF FF             ISC $FFFF,X        ;(7)
1A0D   FF FF FF             ISC $FFFF,X        ;(7)
1A10   FF FF FF             ISC $FFFF,X        ;(7)
1A13   FF FF FF             ISC $FFFF,X        ;(7)
1A16   FF FF FF             ISC $FFFF,X        ;(7)
1A19   FF FF FF             ISC $FFFF,X        ;(7)
1A1C   FF FF FF             ISC $FFFF,X        ;(7)
1A1F   FF FF FF             ISC $FFFF,X        ;(7)
1A22   FF FF FF             ISC $FFFF,X        ;(7)
1A25   FF FF FF             ISC $FFFF,X        ;(7)
1A28   FF FF FF             ISC $FFFF,X        ;(7)
1A2B   FF FF FF             ISC $FFFF,X        ;(7)
1A2E   FF FF FF             ISC $FFFF,X        ;(7)
1A31   FF FF FF             ISC $FFFF,X        ;(7)
1A34   FF FF FF             ISC $FFFF,X        ;(7)
1A37   FF FF FF             ISC $FFFF,X        ;(7)
1A3A   FF FF FF             ISC $FFFF,X        ;(7)
1A3D   FF FF FF             ISC $FFFF,X        ;(7)
1A40   FF FF FF             ISC $FFFF,X        ;(7)
1A43   FF FF FF             ISC $FFFF,X        ;(7)
1A46   FF FF FF             ISC $FFFF,X        ;(7)
1A49   FF FF FF             ISC $FFFF,X        ;(7)
1A4C   FF FF FF             ISC $FFFF,X        ;(7)
1A4F   FF FF FF             ISC $FFFF,X        ;(7)
1A52   FF FF FF             ISC $FFFF,X        ;(7)
1A55   FF FF FF             ISC $FFFF,X        ;(7)
1A58   FF FF FF             ISC $FFFF,X        ;(7)
1A5B   FF FF FF             ISC $FFFF,X        ;(7)
1A5E   FF FF FF             ISC $FFFF,X        ;(7)
1A61   FF FF FF             ISC $FFFF,X        ;(7)
1A64   FF FF FF             ISC $FFFF,X        ;(7)
1A67   FF FF FF             ISC $FFFF,X        ;(7)
1A6A   FF FF FF             ISC $FFFF,X        ;(7)
1A6D   FF FF FF             ISC $FFFF,X        ;(7)
1A70   FF FF FF             ISC $FFFF,X        ;(7)
1A73   FF FF FF             ISC $FFFF,X        ;(7)
1A76   FF FF FF             ISC $FFFF,X        ;(7)
1A79   FF FF FF             ISC $FFFF,X        ;(7)
1A7C   FF FF FF             ISC $FFFF,X        ;(7)
1A7F   FF FF FF             ISC $FFFF,X        ;(7)
1A82   FF FF FF             ISC $FFFF,X        ;(7)
1A85   FF FF FF             ISC $FFFF,X        ;(7)
1A88   FF FF FF             ISC $FFFF,X        ;(7)
1A8B   FF FF FF             ISC $FFFF,X        ;(7)
1A8E   FF FF FF             ISC $FFFF,X        ;(7)
1A91   FF FF FF             ISC $FFFF,X        ;(7)
1A94   FF FF FF             ISC $FFFF,X        ;(7)
1A97   FF FF FF             ISC $FFFF,X        ;(7)
1A9A   FF FF FF             ISC $FFFF,X        ;(7)
1A9D   FF FF FF             ISC $FFFF,X        ;(7)
1AA0   FF FF FF             ISC $FFFF,X        ;(7)
1AA3   FF FF FF             ISC $FFFF,X        ;(7)
1AA6   FF FF FF             ISC $FFFF,X        ;(7)
1AA9   FF FF FF             ISC $FFFF,X        ;(7)
1AAC   FF FF FF             ISC $FFFF,X        ;(7)
1AAF   FF FF FF             ISC $FFFF,X        ;(7)
1AB2   FF FF FF             ISC $FFFF,X        ;(7)
1AB5   FF FF FF             ISC $FFFF,X        ;(7)
1AB8   FF FF FF             ISC $FFFF,X        ;(7)
1ABB   FF FF FF             ISC $FFFF,X        ;(7)
1ABE   FF FF FF             ISC $FFFF,X        ;(7)
1AC1   FF FF FF             ISC $FFFF,X        ;(7)
1AC4   FF FF FF             ISC $FFFF,X        ;(7)
1AC7   FF FF FF             ISC $FFFF,X        ;(7)
1ACA   FF FF FF             ISC $FFFF,X        ;(7)
1ACD   FF FF FF             ISC $FFFF,X        ;(7)
1AD0   FF FF FF             ISC $FFFF,X        ;(7)
1AD3   FF FF FF             ISC $FFFF,X        ;(7)
1AD6   FF FF FF             ISC $FFFF,X        ;(7)
1AD9   FF FF FF             ISC $FFFF,X        ;(7)
1ADC   FF FF FF             ISC $FFFF,X        ;(7)
1ADF   FF FF FF             ISC $FFFF,X        ;(7)
1AE2   FF FF FF             ISC $FFFF,X        ;(7)
1AE5   FF FF FF             ISC $FFFF,X        ;(7)
1AE8   FF FF FF             ISC $FFFF,X        ;(7)
1AEB   FF FF FF             ISC $FFFF,X        ;(7)
1AEE   FF FF FF             ISC $FFFF,X        ;(7)
1AF1   FF FF FF             ISC $FFFF,X        ;(7)
1AF4   FF FF FF             ISC $FFFF,X        ;(7)
1AF7   FF FF FF             ISC $FFFF,X        ;(7)
1AFA   FF FF FF             ISC $FFFF,X        ;(7)
1AFD   FF FF FF             ISC $FFFF,X        ;(7)
1B00   FF FF FF             ISC $FFFF,X        ;(7)
1B03   FF FF FF             ISC $FFFF,X        ;(7)
1B06   FF FF FF             ISC $FFFF,X        ;(7)
1B09   FF FF FF             ISC $FFFF,X        ;(7)
1B0C   FF FF FF             ISC $FFFF,X        ;(7)
1B0F   FF FF FF             ISC $FFFF,X        ;(7)
1B12   FF FF FF             ISC $FFFF,X        ;(7)
1B15   FF FF FF             ISC $FFFF,X        ;(7)
1B18   FF FF FF             ISC $FFFF,X        ;(7)
1B1B   FF FF FF             ISC $FFFF,X        ;(7)
1B1E   FF FF FF             ISC $FFFF,X        ;(7)
1B21   FF FF FF             ISC $FFFF,X        ;(7)
1B24   FF FF FF             ISC $FFFF,X        ;(7)
1B27   FF FF FF             ISC $FFFF,X        ;(7)
1B2A   FF FF FF             ISC $FFFF,X        ;(7)
1B2D   FF FF FF             ISC $FFFF,X        ;(7)
1B30   FF FF FF             ISC $FFFF,X        ;(7)
1B33   FF FF FF             ISC $FFFF,X        ;(7)
1B36   FF FF FF             ISC $FFFF,X        ;(7)
1B39   FF FF FF             ISC $FFFF,X        ;(7)
1B3C   FF FF FF             ISC $FFFF,X        ;(7)
1B3F   FF FF FF             ISC $FFFF,X        ;(7)
1B42   FF FF FF             ISC $FFFF,X        ;(7)
1B45   FF FF FF             ISC $FFFF,X        ;(7)
1B48   FF FF FF             ISC $FFFF,X        ;(7)
1B4B   FF FF FF             ISC $FFFF,X        ;(7)
1B4E   FF FF FF             ISC $FFFF,X        ;(7)
1B51   FF FF FF             ISC $FFFF,X        ;(7)
1B54   FF FF FF             ISC $FFFF,X        ;(7)
1B57   FF FF FF             ISC $FFFF,X        ;(7)
1B5A   FF FF FF             ISC $FFFF,X        ;(7)
1B5D   FF FF FF             ISC $FFFF,X        ;(7)
1B60   FF FF FF             ISC $FFFF,X        ;(7)
1B63   FF FF FF             ISC $FFFF,X        ;(7)
1B66   FF FF FF             ISC $FFFF,X        ;(7)
1B69   FF FF FF             ISC $FFFF,X        ;(7)
1B6C   FF FF FF             ISC $FFFF,X        ;(7)
1B6F   FF FF FF             ISC $FFFF,X        ;(7)
1B72   FF FF FF             ISC $FFFF,X        ;(7)
1B75   FF FF FF             ISC $FFFF,X        ;(7)
1B78   FF FF FF             ISC $FFFF,X        ;(7)
1B7B   FF FF FF             ISC $FFFF,X        ;(7)
1B7E   FF FF FF             ISC $FFFF,X        ;(7)
1B81   FF FF FF             ISC $FFFF,X        ;(7)
1B84   FF FF FF             ISC $FFFF,X        ;(7)
1B87   FF FF FF             ISC $FFFF,X        ;(7)
1B8A   FF FF FF             ISC $FFFF,X        ;(7)
1B8D   FF FF FF             ISC $FFFF,X        ;(7)
1B90   FF FF FF             ISC $FFFF,X        ;(7)
1B93   FF FF FF             ISC $FFFF,X        ;(7)
1B96   FF FF FF             ISC $FFFF,X        ;(7)
1B99   FF FF FF             ISC $FFFF,X        ;(7)
1B9C   FF FF FF             ISC $FFFF,X        ;(7)
1B9F   FF FF FF             ISC $FFFF,X        ;(7)
1BA2   FF FF FF             ISC $FFFF,X        ;(7)
1BA5   FF FF FF             ISC $FFFF,X        ;(7)
1BA8   FF FF FF             ISC $FFFF,X        ;(7)
1BAB   FF FF FF             ISC $FFFF,X        ;(7)
1BAE   FF FF FF             ISC $FFFF,X        ;(7)
1BB1   FF FF FF             ISC $FFFF,X        ;(7)
1BB4   FF FF FF             ISC $FFFF,X        ;(7)
1BB7   FF FF FF             ISC $FFFF,X        ;(7)
1BBA   FF FF FF             ISC $FFFF,X        ;(7)
1BBD   FF FF FF             ISC $FFFF,X        ;(7)
1BC0   FF FF FF             ISC $FFFF,X        ;(7)
1BC3   FF FF FF             ISC $FFFF,X        ;(7)
1BC6   FF FF FF             ISC $FFFF,X        ;(7)
1BC9   FF FF FF             ISC $FFFF,X        ;(7)
1BCC   FF FF FF             ISC $FFFF,X        ;(7)
1BCF   FF FF FF             ISC $FFFF,X        ;(7)
1BD2   FF FF FF             ISC $FFFF,X        ;(7)
1BD5   FF FF FF             ISC $FFFF,X        ;(7)
1BD8   FF FF FF             ISC $FFFF,X        ;(7)
1BDB   FF FF FF             ISC $FFFF,X        ;(7)
1BDE   FF FF FF             ISC $FFFF,X        ;(7)
1BE1   FF FF FF             ISC $FFFF,X        ;(7)
1BE4   FF FF FF             ISC $FFFF,X        ;(7)
1BE7   FF FF FF             ISC $FFFF,X        ;(7)
1BEA   FF FF FF             ISC $FFFF,X        ;(7)
1BED   FF FF FF             ISC $FFFF,X        ;(7)
1BF0   FF FF FF             ISC $FFFF,X        ;(7)
1BF3   FF FF FF             ISC $FFFF,X        ;(7)
1BF6   FF FF FF             ISC $FFFF,X        ;(7)
1BF9   FF FF FF             ISC $FFFF,X        ;(7)
1BFC   FF FF FF             ISC $FFFF,X        ;(7)
1BFF   FF FF FF             ISC $FFFF,X        ;(7)
1C02   FF FF FF             ISC $FFFF,X        ;(7)
1C05   FF FF FF             ISC $FFFF,X        ;(7)
1C08   FF FF FF             ISC $FFFF,X        ;(7)
1C0B   FF FF FF             ISC $FFFF,X        ;(7)
1C0E   FF FF FF             ISC $FFFF,X        ;(7)
1C11   FF FF FF             ISC $FFFF,X        ;(7)
1C14   FF FF FF             ISC $FFFF,X        ;(7)
1C17   FF FF FF             ISC $FFFF,X        ;(7)
1C1A   FF FF FF             ISC $FFFF,X        ;(7)
1C1D   FF FF FF             ISC $FFFF,X        ;(7)
1C20   FF FF FF             ISC $FFFF,X        ;(7)
1C23   FF FF FF             ISC $FFFF,X        ;(7)
1C26   FF FF FF             ISC $FFFF,X        ;(7)
1C29   FF FF FF             ISC $FFFF,X        ;(7)
1C2C   FF FF FF             ISC $FFFF,X        ;(7)
1C2F   FF FF FF             ISC $FFFF,X        ;(7)
1C32   FF FF FF             ISC $FFFF,X        ;(7)
1C35   FF FF FF             ISC $FFFF,X        ;(7)
1C38   FF FF FF             ISC $FFFF,X        ;(7)
1C3B   FF FF FF             ISC $FFFF,X        ;(7)
1C3E   FF FF FF             ISC $FFFF,X        ;(7)
1C41   FF FF FF             ISC $FFFF,X        ;(7)
1C44   FF FF FF             ISC $FFFF,X        ;(7)
1C47   FF FF FF             ISC $FFFF,X        ;(7)
1C4A   FF FF FF             ISC $FFFF,X        ;(7)
1C4D   FF FF FF             ISC $FFFF,X        ;(7)
1C50   FF FF FF             ISC $FFFF,X        ;(7)
1C53   FF FF FF             ISC $FFFF,X        ;(7)
1C56   FF FF FF             ISC $FFFF,X        ;(7)
1C59   FF FF FF             ISC $FFFF,X        ;(7)
1C5C   FF FF FF             ISC $FFFF,X        ;(7)
1C5F   FF FF FF             ISC $FFFF,X        ;(7)
1C62   FF FF FF             ISC $FFFF,X        ;(7)
1C65   FF FF FF             ISC $FFFF,X        ;(7)
1C68   FF FF FF             ISC $FFFF,X        ;(7)
1C6B   FF FF FF             ISC $FFFF,X        ;(7)
1C6E   FF FF FF             ISC $FFFF,X        ;(7)
1C71   FF FF FF             ISC $FFFF,X        ;(7)
1C74   FF FF FF             ISC $FFFF,X        ;(7)
1C77   FF FF FF             ISC $FFFF,X        ;(7)
1C7A   FF FF FF             ISC $FFFF,X        ;(7)
1C7D   FF FF FF             ISC $FFFF,X        ;(7)
1C80   FF FF FF             ISC $FFFF,X        ;(7)
1C83   FF FF FF             ISC $FFFF,X        ;(7)
1C86   FF FF FF             ISC $FFFF,X        ;(7)
1C89   FF FF FF             ISC $FFFF,X        ;(7)
1C8C   FF FF FF             ISC $FFFF,X        ;(7)
1C8F   FF FF FF             ISC $FFFF,X        ;(7)
1C92   FF FF FF             ISC $FFFF,X        ;(7)
1C95   FF FF FF             ISC $FFFF,X        ;(7)
1C98   FF FF FF             ISC $FFFF,X        ;(7)
1C9B   FF FF FF             ISC $FFFF,X        ;(7)
1C9E   FF FF FF             ISC $FFFF,X        ;(7)
1CA1   FF FF FF             ISC $FFFF,X        ;(7)
1CA4   FF FF FF             ISC $FFFF,X        ;(7)
1CA7   FF FF FF             ISC $FFFF,X        ;(7)
1CAA   FF FF FF             ISC $FFFF,X        ;(7)
1CAD   FF FF FF             ISC $FFFF,X        ;(7)
1CB0   FF FF FF             ISC $FFFF,X        ;(7)
1CB3   FF FF FF             ISC $FFFF,X        ;(7)
1CB6   FF FF FF             ISC $FFFF,X        ;(7)
1CB9   FF FF FF             ISC $FFFF,X        ;(7)
1CBC   FF FF FF             ISC $FFFF,X        ;(7)
1CBF   FF FF FF             ISC $FFFF,X        ;(7)
1CC2   FF FF FF             ISC $FFFF,X        ;(7)
1CC5   FF FF FF             ISC $FFFF,X        ;(7)
1CC8   FF FF FF             ISC $FFFF,X        ;(7)
1CCB   FF FF FF             ISC $FFFF,X        ;(7)
1CCE   FF FF FF             ISC $FFFF,X        ;(7)
1CD1   FF FF FF             ISC $FFFF,X        ;(7)
1CD4   FF FF FF             ISC $FFFF,X        ;(7)
1CD7   FF FF FF             ISC $FFFF,X        ;(7)
1CDA   FF FF FF             ISC $FFFF,X        ;(7)
1CDD   FF FF FF             ISC $FFFF,X        ;(7)
1CE0   FF FF FF             ISC $FFFF,X        ;(7)
1CE3   FF FF FF             ISC $FFFF,X        ;(7)
1CE6   FF FF FF             ISC $FFFF,X        ;(7)
1CE9   FF FF FF             ISC $FFFF,X        ;(7)
1CEC   FF FF FF             ISC $FFFF,X        ;(7)
1CEF   FF FF FF             ISC $FFFF,X        ;(7)
1CF2   FF FF FF             ISC $FFFF,X        ;(7)
1CF5   FF FF FF             ISC $FFFF,X        ;(7)
1CF8   FF FF FF             ISC $FFFF,X        ;(7)
1CFB   FF FF FF             ISC $FFFF,X        ;(7)
1CFE   FF FF FF             ISC $FFFF,X        ;(7)
1D01   FF FF FF             ISC $FFFF,X        ;(7)
1D04   FF FF FF             ISC $FFFF,X        ;(7)
1D07   FF FF FF             ISC $FFFF,X        ;(7)
1D0A   FF FF FF             ISC $FFFF,X        ;(7)
1D0D   FF FF FF             ISC $FFFF,X        ;(7)
1D10   FF FF FF             ISC $FFFF,X        ;(7)
1D13   FF FF FF             ISC $FFFF,X        ;(7)
1D16   FF FF FF             ISC $FFFF,X        ;(7)
1D19   FF FF FF             ISC $FFFF,X        ;(7)
1D1C   FF FF FF             ISC $FFFF,X        ;(7)
1D1F   FF FF FF             ISC $FFFF,X        ;(7)
1D22   FF FF FF             ISC $FFFF,X        ;(7)
1D25   FF FF FF             ISC $FFFF,X        ;(7)
1D28   FF FF FF             ISC $FFFF,X        ;(7)
1D2B   FF FF FF             ISC $FFFF,X        ;(7)
1D2E   FF FF FF             ISC $FFFF,X        ;(7)
1D31   FF FF FF             ISC $FFFF,X        ;(7)
1D34   FF FF FF             ISC $FFFF,X        ;(7)
1D37   FF FF FF             ISC $FFFF,X        ;(7)
1D3A   FF FF FF             ISC $FFFF,X        ;(7)
1D3D   FF FF FF             ISC $FFFF,X        ;(7)
1D40   FF FF FF             ISC $FFFF,X        ;(7)
1D43   FF FF FF             ISC $FFFF,X        ;(7)
1D46   FF FF FF             ISC $FFFF,X        ;(7)
1D49   FF FF FF             ISC $FFFF,X        ;(7)
1D4C   FF FF FF             ISC $FFFF,X        ;(7)
1D4F   FF FF FF             ISC $FFFF,X        ;(7)
1D52   FF FF FF             ISC $FFFF,X        ;(7)
1D55   FF FF FF             ISC $FFFF,X        ;(7)
1D58   FF FF FF             ISC $FFFF,X        ;(7)
1D5B   FF FF FF             ISC $FFFF,X        ;(7)
1D5E   FF FF FF             ISC $FFFF,X        ;(7)
1D61   FF FF FF             ISC $FFFF,X        ;(7)
1D64   FF FF FF             ISC $FFFF,X        ;(7)
1D67   FF FF FF             ISC $FFFF,X        ;(7)
1D6A   FF FF FF             ISC $FFFF,X        ;(7)
1D6D   FF FF FF             ISC $FFFF,X        ;(7)
1D70   FF FF FF             ISC $FFFF,X        ;(7)
1D73   FF FF FF             ISC $FFFF,X        ;(7)
1D76   FF FF FF             ISC $FFFF,X        ;(7)
1D79   FF FF FF             ISC $FFFF,X        ;(7)
1D7C   FF FF FF             ISC $FFFF,X        ;(7)
1D7F   FF FF FF             ISC $FFFF,X        ;(7)
1D82   FF FF FF             ISC $FFFF,X        ;(7)
1D85   FF FF FF             ISC $FFFF,X        ;(7)
1D88   FF FF FF             ISC $FFFF,X        ;(7)
1D8B   FF FF FF             ISC $FFFF,X        ;(7)
1D8E   FF FF FF             ISC $FFFF,X        ;(7)
1D91   FF FF FF             ISC $FFFF,X        ;(7)
1D94   FF FF FF             ISC $FFFF,X        ;(7)
1D97   FF FF FF             ISC $FFFF,X        ;(7)
1D9A   FF FF FF             ISC $FFFF,X        ;(7)
1D9D   FF FF FF             ISC $FFFF,X        ;(7)
1DA0   FF FF FF             ISC $FFFF,X        ;(7)
1DA3   FF FF FF             ISC $FFFF,X        ;(7)
1DA6   FF FF FF             ISC $FFFF,X        ;(7)
1DA9   FF FF FF             ISC $FFFF,X        ;(7)
1DAC   FF FF FF             ISC $FFFF,X        ;(7)
1DAF   FF FF FF             ISC $FFFF,X        ;(7)
1DB2   FF FF FF             ISC $FFFF,X        ;(7)
1DB5   FF FF FF             ISC $FFFF,X        ;(7)
1DB8   FF FF FF             ISC $FFFF,X        ;(7)
1DBB   FF FF FF             ISC $FFFF,X        ;(7)
1DBE   FF FF FF             ISC $FFFF,X        ;(7)
1DC1   FF FF FF             ISC $FFFF,X        ;(7)
1DC4   FF FF FF             ISC $FFFF,X        ;(7)
1DC7   FF FF FF             ISC $FFFF,X        ;(7)
1DCA   FF FF FF             ISC $FFFF,X        ;(7)
1DCD   FF FF FF             ISC $FFFF,X        ;(7)
1DD0   FF FF FF             ISC $FFFF,X        ;(7)
1DD3   FF FF FF             ISC $FFFF,X        ;(7)
1DD6   FF FF FF             ISC $FFFF,X        ;(7)
1DD9   FF FF FF             ISC $FFFF,X        ;(7)
1DDC   FF FF FF             ISC $FFFF,X        ;(7)
1DDF   FF FF FF             ISC $FFFF,X        ;(7)
1DE2   FF FF FF             ISC $FFFF,X        ;(7)
1DE5   FF FF FF             ISC $FFFF,X        ;(7)
1DE8   FF FF FF             ISC $FFFF,X        ;(7)
1DEB   FF FF FF             ISC $FFFF,X        ;(7)
1DEE   FF FF FF             ISC $FFFF,X        ;(7)
1DF1   FF FF FF             ISC $FFFF,X        ;(7)
1DF4   FF FF FF             ISC $FFFF,X        ;(7)
1DF7   FF FF FF             ISC $FFFF,X        ;(7)
1DFA   FF FF FF             ISC $FFFF,X        ;(7)
1DFD   FF FF FF             ISC $FFFF,X        ;(7)
1E00   FF FF FF             ISC $FFFF,X        ;(7)
1E03   FF FF FF             ISC $FFFF,X        ;(7)
1E06   FF FF FF             ISC $FFFF,X        ;(7)
1E09   FF FF FF             ISC $FFFF,X        ;(7)
1E0C   FF FF FF             ISC $FFFF,X        ;(7)
1E0F   FF FF FF             ISC $FFFF,X        ;(7)
1E12   FF FF FF             ISC $FFFF,X        ;(7)
1E15   FF FF FF             ISC $FFFF,X        ;(7)
1E18   FF FF FF             ISC $FFFF,X        ;(7)
1E1B   FF FF FF             ISC $FFFF,X        ;(7)
1E1E   FF FF FF             ISC $FFFF,X        ;(7)
1E21   FF FF FF             ISC $FFFF,X        ;(7)
1E24   FF FF FF             ISC $FFFF,X        ;(7)
1E27   FF FF FF             ISC $FFFF,X        ;(7)
1E2A   FF FF FF             ISC $FFFF,X        ;(7)
1E2D   FF FF FF             ISC $FFFF,X        ;(7)
1E30   FF FF FF             ISC $FFFF,X        ;(7)
1E33   FF FF FF             ISC $FFFF,X        ;(7)
1E36   FF FF FF             ISC $FFFF,X        ;(7)
1E39   FF FF FF             ISC $FFFF,X        ;(7)
1E3C   FF FF FF             ISC $FFFF,X        ;(7)
1E3F   FF FF FF             ISC $FFFF,X        ;(7)
1E42   FF FF FF             ISC $FFFF,X        ;(7)
1E45   FF FF FF             ISC $FFFF,X        ;(7)
1E48   FF FF FF             ISC $FFFF,X        ;(7)
1E4B   FF FF FF             ISC $FFFF,X        ;(7)
1E4E   FF FF FF             ISC $FFFF,X        ;(7)
1E51   FF FF FF             ISC $FFFF,X        ;(7)
1E54   FF FF FF             ISC $FFFF,X        ;(7)
1E57   FF FF FF             ISC $FFFF,X        ;(7)
1E5A   FF FF FF             ISC $FFFF,X        ;(7)
1E5D   FF FF FF             ISC $FFFF,X        ;(7)
1E60   FF FF FF             ISC $FFFF,X        ;(7)
1E63   FF FF FF             ISC $FFFF,X        ;(7)
1E66   FF FF FF             ISC $FFFF,X        ;(7)
1E69   FF FF FF             ISC $FFFF,X        ;(7)
1E6C   FF FF FF             ISC $FFFF,X        ;(7)
1E6F   FF FF FF             ISC $FFFF,X        ;(7)
1E72   FF FF FF             ISC $FFFF,X        ;(7)
1E75   FF FF FF             ISC $FFFF,X        ;(7)
1E78   FF FF FF             ISC $FFFF,X        ;(7)
1E7B   FF FF FF             ISC $FFFF,X        ;(7)
1E7E   FF FF FF             ISC $FFFF,X        ;(7)
1E81   FF FF FF             ISC $FFFF,X        ;(7)
1E84   FF FF FF             ISC $FFFF,X        ;(7)
1E87   FF FF FF             ISC $FFFF,X        ;(7)
1E8A   FF FF FF             ISC $FFFF,X        ;(7)
1E8D   FF FF FF             ISC $FFFF,X        ;(7)
1E90   FF FF FF             ISC $FFFF,X        ;(7)
1E93   FF FF FF             ISC $FFFF,X        ;(7)
1E96   FF FF FF             ISC $FFFF,X        ;(7)
1E99   FF FF FF             ISC $FFFF,X        ;(7)
1E9C   FF FF FF             ISC $FFFF,X        ;(7)
1E9F   FF FF FF             ISC $FFFF,X        ;(7)
1EA2   FF FF FF             ISC $FFFF,X        ;(7)
1EA5   FF FF FF             ISC $FFFF,X        ;(7)
1EA8   FF FF FF             ISC $FFFF,X        ;(7)
1EAB   FF FF FF             ISC $FFFF,X        ;(7)
1EAE   FF FF FF             ISC $FFFF,X        ;(7)
1EB1   FF FF FF             ISC $FFFF,X        ;(7)
1EB4   FF FF FF             ISC $FFFF,X        ;(7)
1EB7   FF FF FF             ISC $FFFF,X        ;(7)
1EBA   FF FF FF             ISC $FFFF,X        ;(7)
1EBD   FF FF FF             ISC $FFFF,X        ;(7)
1EC0   FF FF FF             ISC $FFFF,X        ;(7)
1EC3   FF FF FF             ISC $FFFF,X        ;(7)
1EC6   FF FF FF             ISC $FFFF,X        ;(7)
1EC9   FF FF FF             ISC $FFFF,X        ;(7)
1ECC   FF FF FF             ISC $FFFF,X        ;(7)
1ECF   FF FF FF             ISC $FFFF,X        ;(7)
1ED2   FF FF FF             ISC $FFFF,X        ;(7)
1ED5   FF FF FF             ISC $FFFF,X        ;(7)
1ED8   FF FF FF             ISC $FFFF,X        ;(7)
1EDB   FF FF FF             ISC $FFFF,X        ;(7)
1EDE   FF FF FF             ISC $FFFF,X        ;(7)
1EE1   FF FF FF             ISC $FFFF,X        ;(7)
1EE4   FF FF FF             ISC $FFFF,X        ;(7)
1EE7   FF FF FF             ISC $FFFF,X        ;(7)
1EEA   FF FF FF             ISC $FFFF,X        ;(7)
1EED   FF FF FF             ISC $FFFF,X        ;(7)
1EF0   FF FF FF             ISC $FFFF,X        ;(7)
1EF3   FF FF FF             ISC $FFFF,X        ;(7)
1EF6   FF FF FF             ISC $FFFF,X        ;(7)
1EF9   FF FF FF             ISC $FFFF,X        ;(7)
1EFC   FF FF FF             ISC $FFFF,X        ;(7)
1EFF   FF FF FF             ISC $FFFF,X        ;(7)
1F02   FF FF FF             ISC $FFFF,X        ;(7)
1F05   FF FF FF             ISC $FFFF,X        ;(7)
1F08   FF FF FF             ISC $FFFF,X        ;(7)
1F0B   FF FF FF             ISC $FFFF,X        ;(7)
1F0E   FF FF FF             ISC $FFFF,X        ;(7)
1F11   FF FF FF             ISC $FFFF,X        ;(7)
1F14   FF FF FF             ISC $FFFF,X        ;(7)
1F17   FF FF FF             ISC $FFFF,X        ;(7)
1F1A   FF FF FF             ISC $FFFF,X        ;(7)
1F1D   FF FF FF             ISC $FFFF,X        ;(7)
1F20   FF FF FF             ISC $FFFF,X        ;(7)
1F23   FF FF FF             ISC $FFFF,X        ;(7)
1F26   FF FF FF             ISC $FFFF,X        ;(7)
1F29   FF FF FF             ISC $FFFF,X        ;(7)
1F2C   FF FF FF             ISC $FFFF,X        ;(7)
1F2F   FF FF FF             ISC $FFFF,X        ;(7)
1F32   FF FF FF             ISC $FFFF,X        ;(7)
1F35   FF FF FF             ISC $FFFF,X        ;(7)
1F38   FF FF FF             ISC $FFFF,X        ;(7)
1F3B   FF FF FF             ISC $FFFF,X        ;(7)
1F3E   FF FF FF             ISC $FFFF,X        ;(7)
1F41   FF FF FF             ISC $FFFF,X        ;(7)
1F44   FF FF FF             ISC $FFFF,X        ;(7)
1F47   FF FF FF             ISC $FFFF,X        ;(7)
1F4A   FF FF FF             ISC $FFFF,X        ;(7)
1F4D   FF FF FF             ISC $FFFF,X        ;(7)
1F50   FF FF FF             ISC $FFFF,X        ;(7)
1F53   FF FF FF             ISC $FFFF,X        ;(7)
1F56   FF FF FF             ISC $FFFF,X        ;(7)
1F59   FF FF FF             ISC $FFFF,X        ;(7)
1F5C   FF FF FF             ISC $FFFF,X        ;(7)
1F5F   FF FF FF             ISC $FFFF,X        ;(7)
1F62   FF FF FF             ISC $FFFF,X        ;(7)
1F65   FF FF FF             ISC $FFFF,X        ;(7)
1F68   FF FF FF             ISC $FFFF,X        ;(7)
1F6B   FF FF FF             ISC $FFFF,X        ;(7)
1F6E   FF FF FF             ISC $FFFF,X        ;(7)
1F71   FF FF FF             ISC $FFFF,X        ;(7)
1F74   FF FF FF             ISC $FFFF,X        ;(7)
1F77   FF FF FF             ISC $FFFF,X        ;(7)
1F7A   FF FF FF             ISC $FFFF,X        ;(7)
1F7D   FF FF FF             ISC $FFFF,X        ;(7)
1F80   FF FF FF             ISC $FFFF,X        ;(7)
1F83   FF FF FF             ISC $FFFF,X        ;(7)
1F86   FF FF FF             ISC $FFFF,X        ;(7)
1F89   FF FF FF             ISC $FFFF,X        ;(7)
1F8C   FF FF FF             ISC $FFFF,X        ;(7)
1F8F   FF FF FF             ISC $FFFF,X        ;(7)
1F92   FF FF FF             ISC $FFFF,X        ;(7)
1F95   FF FF FF             ISC $FFFF,X        ;(7)
1F98   FF FF FF             ISC $FFFF,X        ;(7)
1F9B   FF FF FF             ISC $FFFF,X        ;(7)
1F9E   FF FF FF             ISC $FFFF,X        ;(7)
1FA1   FF FF FF             ISC $FFFF,X        ;(7)
1FA4   FF FF FF             ISC $FFFF,X        ;(7)
1FA7   FF FF FF             ISC $FFFF,X        ;(7)
1FAA   FF FF FF             ISC $FFFF,X        ;(7)
1FAD   FF FF FF             ISC $FFFF,X        ;(7)
1FB0   FF FF FF             ISC $FFFF,X        ;(7)
1FB3   FF FF FF             ISC $FFFF,X        ;(7)
1FB6   FF FF FF             ISC $FFFF,X        ;(7)
1FB9   FF FF FF             ISC $FFFF,X        ;(7)
1FBC   FF FF FF             ISC $FFFF,X        ;(7)
1FBF   FF FF FF             ISC $FFFF,X        ;(7)
1FC2   FF FF FF             ISC $FFFF,X        ;(7)
1FC5   FF FF FF             ISC $FFFF,X        ;(7)
1FC8   FF FF FF             ISC $FFFF,X        ;(7)
1FCB   FF FF FF             ISC $FFFF,X        ;(7)
1FCE   FF FF FF             ISC $FFFF,X        ;(7)
1FD1   FF FF FF             ISC $FFFF,X        ;(7)
1FD4   FF FF FF             ISC $FFFF,X        ;(7)
1FD7   FF FF FF             ISC $FFFF,X        ;(7)
1FDA   FF FF FF             ISC $FFFF,X        ;(7)
1FDD   FF FF FF             ISC $FFFF,X        ;(7)
1FE0   FF FF FF             ISC $FFFF,X        ;(7)
1FE3   FF FF FF             ISC $FFFF,X        ;(7)
1FE6   FF FF FF             ISC $FFFF,X        ;(7)
1FE9   FF FF FF             ISC $FFFF,X        ;(7)
1FEC   4C 12 E0             JMP $E012          ;(3)
1FEF   EA                   NOP                ;(2)
1FF0   38                   SEC                ;(2)
1FF1   B0 FE      L1FF1     BCS L1FF1          ;(2/3)
1FF3   EA                   NOP                ;(2)
1FF4   EA                   NOP                ;(2)
1FF5   A9 FF                LDA #$FF           ;(2)
1FF7   48                   PHA                ;(3)
1FF8   28                   PLP                ;(4)
1FF9   40                   RTI                ;(6)
1FFA   F4 FF                NOP $FF,X          ;(4)
1FFC   00                   BRK                ;(7)
1FFD   E0 F4                CPX #$F4           ;(2)
1FFF   FF 00 00             ISC $0000,X        ;(7)
                            .END

;auto-generated symbols and labels
 L1000      $1000
 L1013      $1013
 L1017      $1017
 L1021      $1021
 L1025      $1025
 L1030      $1030
 L1034      $1034
 L1042      $1042
 L1051      $1051
 L1060      $1060
 L1078      $1078
 L1099      $1099
 L1102      $1102
 L1121      $1121
 L1138      $1138
 L1144      $1144
 L1146      $1146
 L1151      $1151
 L1153      $1153
 L1160      $1160
 L1176      $1176
 L1178      $1178
 L1182      $1182
 L1188      $1188
 L1192      $1192
 L1196      $1196
 L1198      $1198
 L1215      $1215
 L1217      $1217
 L1221      $1221
 L1225      $1225
 L1229      $1229
 L1233      $1233
 L1239      $1239
 L1243      $1243
 L1247      $1247
 L1249      $1249
 L1251      $1251
 L1257      $1257
 L1276      $1276
 L1284      $1284
 L1290      $1290
 L1301      $1301
 L1310      $1310
 L1320      $1320
 L1324      $1324
 L1326      $1326
 L1330      $1330
 L1334      $1334
 L1338      $1338
 L1357      $1357
 L1366      $1366
 L1373      $1373
 L1382      $1382
 L1393      $1393
 L1395      $1395
 L1397      $1397
 L1406      $1406
 L1410      $1410
 L1418      $1418
 L1422      $1422
 L1438      $1438
 L1440      $1440
 L1467      $1467
 L1469      $1469
 L1477      $1477
 L1479      $1479
 L1488      $1488
 L1498      $1498
 L1509      $1509
 L1516      $1516
 L1518      $1518
 L1522      $1522
 L1524      $1524
 L1531      $1531
 L1548      $1548
 L1554      $1554
 L1556      $1556
 L0006        $06
 L001D        $1D
 L001F        $1F
 L0021        $21
 L0023        $23
 L002A        $2A
 L002F        $2F
 L0034        $34
 L0039        $39
 L0041        $41
 L0043        $43
 L0045        $45
 L0047        $47
 L004E        $4E
 L0053        $53
 L0058        $58
 L005D        $5D
 L0061        $61
 L0068        $68
 L0069        $69
 L0070        $70
 L0071        $71
 L0078        $78
 L0079        $79
 L0080        $80
 L0086        $86
 L0088        $88
 L0091        $91
 L0093        $93
 L009C        $9C
 L009E        $9E
 L00A7        $A7
 L00A9        $A9
 L00B2        $B2
 L00B4        $B4
 L00BD        $BD
 L00BF        $BF
 L00CC        $CC
 L00CE        $CE
 L00D2        $D2
 L00D4        $D4
 L00D8        $D8
 L00DA        $DA
 L00DE        $DE
 L00E0        $E0
 L00E4        $E4
 L00E6        $E6
 L00EA        $EA
 L00EC        $EC
 L0105      $0105
 L0107      $0107
 L00F4        $F4
 L010E      $010E
 L0110      $0110
 L0115      $0115
 L0117      $0117
 L011C      $011C
 L011E      $011E
 L0123      $0123
 L0125      $0125
 L012A      $012A
 L012C      $012C
 L0131      $0131
 L0133      $0133
 L0144      $0144
 L0146      $0146
 L0148      $0148
 L014C      $014C
 L014E      $014E
 L0150      $0150
 L0155      $0155
 L0157      $0157
 L0159      $0159
 L015F      $015F
 L0161      $0161
 L0163      $0163
 L0167      $0167
 L0169      $0169
 L016B      $016B
 L0170      $0170
 L0172      $0172
 L0174      $0174
 L017A      $017A
 L017C      $017C
 L017E      $017E
 L0182      $0182
 L0184      $0184
 L0186      $0186
 L018B      $018B
 L018D      $018D
 L018F      $018F
 L0197      $0197
 L0199      $0199
 L019B      $019B
 L019F      $019F
 L01A1      $01A1
 L01A3      $01A3
 L01A8      $01A8
 L01AA      $01AA
 L01AC      $01AC
 L01B2      $01B2
 L01B4      $01B4
 L01B6      $01B6
 L01BA      $01BA
 L01BC      $01BC
 L01BE      $01BE
 L01C3      $01C3
 L01C5      $01C5
 L01C7      $01C7
 L01CD      $01CD
 L01CF      $01CF
 L01D1      $01D1
 L01D5      $01D5
 L01D7      $01D7
 L01D9      $01D9
 L01DE      $01DE
 L01E0      $01E0
 L01E2      $01E2
 L01EC      $01EC
 L01EE      $01EE
 L01F0      $01F0
 L01F4      $01F4
 L01F6      $01F6
 L01F8      $01F8
 L01FE      $01FE
 L0200      $0200
 L0202      $0202
 L0206      $0206
 L0208      $0208
 L020A      $020A
 L020F      $020F
 L0211      $0211
 L0213      $0213
 L0219      $0219
 L021B      $021B
 L021D      $021D
 L0221      $0221
 L0223      $0223
 L0225      $0225
 L022A      $022A
 L022C      $022C
 L022E      $022E
 L0239      $0239
 L023B      $023B
 L023F      $023F
 L0246      $0246
 L0248      $0248
 L024C      $024C
 L0255      $0255
 L0257      $0257
 L025B      $025B
 L0262      $0262
 L0264      $0264
 L0268      $0268
 L0271      $0271
 L0273      $0273
 L0277      $0277
 L027E      $027E
 L0280      $0280
 L0284      $0284
 L028F      $028F
 L0291      $0291
 L0295      $0295
 L029C      $029C
 L029E      $029E
 L02A2      $02A2
 L02AB      $02AB
 L02AD      $02AD
 L02B1      $02B1
 L02B8      $02B8
 L02BA      $02BA
 L02BE      $02BE
 L02C7      $02C7
 L02C9      $02C9
 L02CD      $02CD
 L02D6      $02D6
 L02DA      $02DA
 L02E3      $02E3
 L02E5      $02E5
 L02EA      $02EA
 L02EC      $02EC
 L02F0      $02F0
 L02F9      $02F9
 L02FB      $02FB
 L0300      $0300
 L0302      $0302
 L0306      $0306
 L030F      $030F
 L0311      $0311
 L0316      $0316
 L0318      $0318
 L031C      $031C
 L0326      $0326
 L0328      $0328
 L0332      $0332
 L0334      $0334
 L033E      $033E
 L0340      $0340
 L0349      $0349
 L034B      $034B
 L034E      $034E
 L0350      $0350
 L0359      $0359
 L035B      $035B
 L035E      $035E
 L0360      $0360
 L0363      $0363
 L0365      $0365
 L036E      $036E
 L0370      $0370
 L0373      $0373
 L0375      $0375
 L0378      $0378
 L037A      $037A
 L0383      $0383
 L0385      $0385
 L0388      $0388
 L038A      $038A
 L0393      $0393
 L0395      $0395
 L0398      $0398
 L039A      $039A
 L03A3      $03A3
 L03A5      $03A5
 L03A8      $03A8
 L03AA      $03AA
 L03AD      $03AD
 L03AF      $03AF
 L03B8      $03B8
 L03BA      $03BA
 L03BD      $03BD
 L03BF      $03BF
 L03C2      $03C2
 L03C4      $03C4
 L03CD      $03CD
 L03CF      $03CF
 L03D2      $03D2
 L03D4      $03D4
 L03E2      $03E2
 L03E4      $03E4
 L03E8      $03E8
 L03F4      $03F4
 L03F6      $03F6
 L03FA      $03FA
 L0406      $0406
 L0408      $0408
 L040C      $040C
 L0418      $0418
 L041A      $041A
 L041E      $041E
 L042A      $042A
 L042C      $042C
 L0430      $0430
 L043C      $043C
 L043E      $043E
 L0442      $0442
 L0452      $0452
 L0454      $0454
 L0458      $0458
 L0466      $0466
 L0468      $0468
 L046C      $046C
 L047A      $047A
 L047C      $047C
 L0480      $0480
 L0490      $0490
 L0492      $0492
 L0496      $0496
 L04A4      $04A4
 L04A6      $04A6
 L04AA      $04AA
 L04B8      $04B8
 L04BA      $04BA
 L04BE      $04BE
 L04D2      $04D2
 L04E0      $04E0
 L04EE      $04EE
 L04FC      $04FC
 L0508      $0508
 L0514      $0514
 L0527      $0527
 L053A      $053A
 L054B      $054B
 L055E      $055E
 L0571      $0571
 L0582      $0582
 L0597      $0597
 L0599      $0599
 L059D      $059D
 L05AD      $05AD
 L05AF      $05AF
 L05B3      $05B3
 L05C0      $05C0
 L05C2      $05C2
 L05C6      $05C6
 L05D3      $05D3
 L05D5      $05D5
 L05D9      $05D9
 L05E6      $05E6
 L05E8      $05E8
 L05EC      $05EC
 L05F9      $05F9
 L05FB      $05FB
 L05FF      $05FF
 L0616      $0616
 L0618      $0618
 L061C      $061C
 L0629      $0629
 L062B      $062B
 L062F      $062F
 L063C      $063C
 L063E      $063E
 L0642      $0642
 L065C      $065C
 L0676      $0676
 L0688      $0688
 L069A      $069A
 L06AA      $06AA
 L06BA      $06BA
 L06D6      $06D6
 L06E8      $06E8
 L06F8      $06F8
 L0709      $0709
 L070B      $070B
 L070D      $070D
 L070F      $070F
 L0713      $0713
 L071E      $071E
 L0720      $0720
 L0722      $0722
 L0724      $0724
 L0728      $0728
 L0734      $0734
 L0736      $0736
 L0738      $0738
 L073A      $073A
 L073E      $073E
 L074C      $074C
 L074E      $074E
 L0750      $0750
 L0752      $0752
 L0756      $0756
 L0765      $0765
 L0767      $0767
 L0769      $0769
 L076B      $076B
 L076F      $076F
 L077F      $077F
 L0781      $0781
 L0783      $0783
 L0785      $0785
 L0789      $0789
 L07A3      $07A3
 L07A5      $07A5
 L07A7      $07A7
 L07A9      $07A9
 L07AD      $07AD
 L07BA      $07BA
 L07BC      $07BC
 L07BE      $07BE
 L07C0      $07C0
 L07C4      $07C4
 L07D6      $07D6
 L07D8      $07D8
 L07DA      $07DA
 L07DC      $07DC
 L07E0      $07E0
 L07EB      $07EB
 L07ED      $07ED
 L07EF      $07EF
 L07F1      $07F1
 L07F5      $07F5
 L0801      $0801
 L0803      $0803
 L0805      $0805
 L0807      $0807
 L080B      $080B
 L081C      $081C
 L081E      $081E
 L0820      $0820
 L0822      $0822
 L0826      $0826
 L0837      $0837
 L0839      $0839
 L083B      $083B
 L083D      $083D
 L0841      $0841
 L0854      $0854
 L0856      $0856
 L0858      $0858
 L085A      $085A
 L085E      $085E
 L0879      $0879
 L087B      $087B
 L087D      $087D
 L087F      $087F
 L0883      $0883
 L0892      $0892
 L0894      $0894
 L0896      $0896
 L0898      $0898
 L089C      $089C
 L08AE      $08AE
 L08B0      $08B0
 L08B2      $08B2
 L08B4      $08B4
 L08B8      $08B8
 L08C3      $08C3
 L08C5      $08C5
 L08C7      $08C7
 L08C9      $08C9
 L08CD      $08CD
 L08D9      $08D9
 L08DB      $08DB
 L08DD      $08DD
 L08DF      $08DF
 L08E3      $08E3
 L08F4      $08F4
 L08F6      $08F6
 L08F8      $08F8
 L08FA      $08FA
 L08FE      $08FE
 L090F      $090F
 L0911      $0911
 L0913      $0913
 L0915      $0915
 L0919      $0919
 L092C      $092C
 L092E      $092E
 L0930      $0930
 L0932      $0932
 L0936      $0936
 L0951      $0951
 L0953      $0953
 L0955      $0955
 L0957      $0957
 L095B      $095B
 L096A      $096A
 L096C      $096C
 L096E      $096E
 L0970      $0970
 L0974      $0974
 L0986      $0986
 L0988      $0988
 L098A      $098A
 L098C      $098C
 L0990      $0990
 L099B      $099B
 L099D      $099D
 L099F      $099F
 L09A1      $09A1
 L09A5      $09A5
 L09B1      $09B1
 L09B3      $09B3
 L09B5      $09B5
 L09B7      $09B7
 L09BB      $09BB
 L09CC      $09CC
 L09CE      $09CE
 L09D0      $09D0
 L09D2      $09D2
 L09D6      $09D6
 L09E7      $09E7
 L09E9      $09E9
 L09EB      $09EB
 L09ED      $09ED
 L09F1      $09F1
 L0A04      $0A04
 L0A06      $0A06
 L0A08      $0A08
 L0A0A      $0A0A
 L0A0E      $0A0E
 L0A29      $0A29
 L0A2B      $0A2B
 L0A2D      $0A2D
 L0A2F      $0A2F
 L0A33      $0A33
 L0A42      $0A42
 L0A44      $0A44
 L0A46      $0A46
 L0A48      $0A48
 L0A4C      $0A4C
 L0A5C      $0A5C
 L0A5E      $0A5E
 L0A60      $0A60
 L0A62      $0A62
 L0A66      $0A66
 L0A71      $0A71
 L0A73      $0A73
 L0A75      $0A75
 L0A77      $0A77
 L0A7B      $0A7B
 L0A87      $0A87
 L0A89      $0A89
 L0A8B      $0A8B
 L0A8D      $0A8D
 L0A91      $0A91
 L0A9F      $0A9F
 L0AA1      $0AA1
 L0AA3      $0AA3
 L0AA5      $0AA5
 L0AA9      $0AA9
 L0AB8      $0AB8
 L0ABA      $0ABA
 L0ABC      $0ABC
 L0ABE      $0ABE
 L0AC2      $0AC2
 L0AD2      $0AD2
 L0AD4      $0AD4
 L0AD6      $0AD6
 L0AD8      $0AD8
 L0ADC      $0ADC
 L0AF6      $0AF6
 L0AF8      $0AF8
 L0AFA      $0AFA
 L0AFC      $0AFC
 L0B00      $0B00
 L0B0D      $0B0D
 L0B0F      $0B0F
 L0B11      $0B11
 L0B13      $0B13
 L0B17      $0B17
 L0B29      $0B29
 L0B2B      $0B2B
 L0B2D      $0B2D
 L0B2F      $0B2F
 L0B33      $0B33
 L0B3E      $0B3E
 L0B40      $0B40
 L0B42      $0B42
 L0B44      $0B44
 L0B48      $0B48
 L0B54      $0B54
 L0B56      $0B56
 L0B58      $0B58
 L0B5A      $0B5A
 L0B5E      $0B5E
 L0B6F      $0B6F
 L0B71      $0B71
 L0B73      $0B73
 L0B75      $0B75
 L0B79      $0B79
 L0B8A      $0B8A
 L0B8C      $0B8C
 L0B8E      $0B8E
 L0B90      $0B90
 L0B94      $0B94
 L0BA7      $0BA7
 L0BA9      $0BA9
 L0BAB      $0BAB
 L0BAD      $0BAD
 L0BB1      $0BB1
 L0BCC      $0BCC
 L0BCE      $0BCE
 L0BD0      $0BD0
 L0BD2      $0BD2
 L0BD6      $0BD6
 L0BE5      $0BE5
 L0BE7      $0BE7
 L0BE9      $0BE9
 L0BEB      $0BEB
 L0BEF      $0BEF
 L0C01      $0C01
 L0C03      $0C03
 L0C05      $0C05
 L0C07      $0C07
 L0C0B      $0C0B
 L0C16      $0C16
 L0C18      $0C18
 L0C1A      $0C1A
 L0C1C      $0C1C
 L0C20      $0C20
 L0C2C      $0C2C
 L0C2E      $0C2E
 L0C30      $0C30
 L0C32      $0C32
 L0C36      $0C36
 L0C47      $0C47
 L0C49      $0C49
 L0C4B      $0C4B
 L0C4D      $0C4D
 L0C51      $0C51
 L0C62      $0C62
 L0C64      $0C64
 L0C66      $0C66
 L0C68      $0C68
 L0C6C      $0C6C
 L0C7F      $0C7F
 L0C81      $0C81
 L0C83      $0C83
 L0C85      $0C85
 L0C89      $0C89
 L0CA4      $0CA4
 L0CA6      $0CA6
 L0CA8      $0CA8
 L0CAA      $0CAA
 L0CAE      $0CAE
 L0CBD      $0CBD
 L0CBF      $0CBF
 L0CC1      $0CC1
 L0CC3      $0CC3
 L0CC7      $0CC7
 L0CD9      $0CD9
 L0CDB      $0CDB
 L0CDD      $0CDD
 L0CDF      $0CDF
 L0CE3      $0CE3
 L0CEE      $0CEE
 L0CF0      $0CF0
 L0CF2      $0CF2
 L0CF4      $0CF4
 L0CF8      $0CF8
 L0D04      $0D04
 L0D06      $0D06
 L0D08      $0D08
 L0D0A      $0D0A
 L0D0E      $0D0E
 L0D1F      $0D1F
 L0D21      $0D21
 L0D23      $0D23
 L0D25      $0D25
 L0D29      $0D29
 L0D3A      $0D3A
 L0D3C      $0D3C
 L0D3E      $0D3E
 L0D40      $0D40
 L0D44      $0D44
 L0D57      $0D57
 L0D59      $0D59
 L0D5B      $0D5B
 L0D5D      $0D5D
 L0D61      $0D61
 L0D7C      $0D7C
 L0D7E      $0D7E
 L0D80      $0D80
 L0D82      $0D82
 L0D86      $0D86
 L0D95      $0D95
 L0D97      $0D97
 L0D99      $0D99
 L0D9B      $0D9B
 L0D9F      $0D9F
 L0DAA      $0DAA
 L0DAE      $0DAE
 L0DB9      $0DB9
 L0DC6      $0DC6
 L0DCA      $0DCA
 L0DD5      $0DD5
 L0DD9      $0DD9
 L0DE6      $0DE6
 L0E09      $0E09
 L0E0E      $0E0E
 L0E2B      $0E2B
 L0E2D      $0E2D
 L0E37      $0E37
 L0E39      $0E39
 L0E44      $0E44
 L0E46      $0E46
 L0E50      $0E50
 L0E52      $0E52
 L0E5D      $0E5D
 L0E5F      $0E5F
 L0E6A      $0E6A
 L0E6C      $0E6C
 L0E76      $0E76
 L0E78      $0E78
 L0E82      $0E82
 L0E84      $0E84
 L0EA1      $0EA1
 L0EA3      $0EA3
 L0EAD      $0EAD
 L0EAF      $0EAF
 L0EBA      $0EBA
 L0EBC      $0EBC
 L0EC6      $0EC6
 L0EC8      $0EC8
 L0ED3      $0ED3
 L0ED5      $0ED5
 L0EE0      $0EE0
 L0EE2      $0EE2
 L0EEC      $0EEC
 L0EEE      $0EEE
 L0EF8      $0EF8
 L0EFA      $0EFA
 L0F17      $0F17
 L0F19      $0F19
 L0F23      $0F23
 L0F25      $0F25
 L0F30      $0F30
 L0F32      $0F32
 L0F3C      $0F3C
 L0F3E      $0F3E
 L0F49      $0F49
 L0F4B      $0F4B
 L0F56      $0F56
 L0F58      $0F58
 L0F62      $0F62
 L0F64      $0F64
 L0F6E      $0F6E
 L0F70      $0F70
 L0F8D      $0F8D
 L0F91      $0F91
 L0F9B      $0F9B
 L0F9F      $0F9F
 L0FAA      $0FAA
 L0FAE      $0FAE
 L0FB8      $0FB8
 L0FBC      $0FBC
 L0FC7      $0FC7
 L0FCB      $0FCB
 L0FD6      $0FD6
 L0FDA      $0FDA
 L0FE4      $0FE4
 L0FE8      $0FE8
 L0FF2      $0FF2
 L0FF6      $0FF6
 L103E      $103E
 L104D      $104D
 L105C      $105C
 L106A      $106A
 L106E      $106E
 L107C      $107C
 L109D      $109D
 L10A7      $10A7
 L10AB      $10AB
 L10B6      $10B6
 L10BA      $10BA
 L10C4      $10C4
 L10C8      $10C8
 L10D3      $10D3
 L10D7      $10D7
 L10E2      $10E2
 L10E6      $10E6
 L10F0      $10F0
 L10F4      $10F4
 L10FE      $10FE
 L111F      $111F
 L112B      $112B
 L112D      $112D
 L113A      $113A
 L115E      $115E
 L116A      $116A
 L116C      $116C
 L118C      $118C
 L118E      $118E
 L119C      $119C
 L11A0      $11A0
 L11A2      $11A2
 L11A6      $11A6
 L11AA      $11AA
 L11AC      $11AC
 L11B0      $11B0
 L11B4      $11B4
 L11B6      $11B6
 L11BA      $11BA
 L11BE      $11BE
 L11C0      $11C0
 L11C4      $11C4
 L11C7      $11C7
 L11C9      $11C9
 L11CB      $11CB
 L11E3      $11E3
 L11F1      $11F1
 L11FD      $11FD
 L120B      $120B
 L121B      $121B
 L121F      $121F
 L122B      $122B
 L122F      $122F
 L123D      $123D
 L123F      $123F
 L124D      $124D
 L125A      $125A
 L125C      $125C
 L125E      $125E
 L129E      $129E
 L12A8      $12A8
 L12AA      $12AA
 L12AE      $12AE
 L12B2      $12B2
 L12B4      $12B4
 L12B8      $12B8
 L12BC      $12BC
 L12BE      $12BE
 L12C2      $12C2
 L12C6      $12C6
 L12C8      $12C8
 L12CC      $12CC
 L12E5      $12E5
 L12F4      $12F4
 L131A      $131A
 L131C      $131C
 L132A      $132A
 L132E      $132E
 L133A      $133A
 L133E      $133E
 L13A2      $13A2
 L13A4      $13A4
 L13A6      $13A6
 L13B7      $13B7
 L13B9      $13B9
 L13BB      $13BB
 L13C6      $13C6
 L13C8      $13C8
 L13CA      $13CA
 L13DB      $13DB
 L13DD      $13DD
 L13DF      $13DF
 L13EA      $13EA
 L13EC      $13EC
 L13EE      $13EE
 L142E      $142E
 L144A      $144A
 L146D      $146D
 L147D      $147D
 L148A      $148A
 L148E      $148E
 L149A      $149A
 L149E      $149E
 L14A9      $14A9
 L14AB      $14AB
 L14AF      $14AF
 L14BA      $14BA
 L14BC      $14BC
 L14C0      $14C0
 L14CA      $14CA
 L14CC      $14CC
 L14D0      $14D0
 L14DA      $14DA
 L14DC      $14DC
 L14E0      $14E0
 L14FD      $14FD
 L14FF      $14FF
 L150B      $150B
 L152F      $152F
 L153C      $153C
 L153E      $153E
 L154A      $154A
 L156B      $156B
 L157C      $157C
 L157E      $157E
 L158D      $158D
 L159E      $159E
 L15AE      $15AE
 L15C0      $15C0
 L15C4      $15C4
 L15C6      $15C6
 L15C8      $15C8
 L15CD      $15CD
 L15CF      $15CF
 L15D5      $15D5
 L15DC      $15DC
 L15DE      $15DE
 L15E0      $15E0
 L1FF1      $1FF1
